
BlinkingLED.elf:     file format elf32-littlearm

Sections:
Idx Name          Size      VMA       LMA       File off  Algn
  0 .isr_vector   00000194  08000000  08000000  00010000  2**0
                  CONTENTS, ALLOC, LOAD, READONLY, DATA
  1 .text         00002c94  08000194  08000194  00010194  2**2
                  CONTENTS, ALLOC, LOAD, READONLY, CODE
  2 .rodata       00000230  08002e28  08002e28  00012e28  2**2
                  CONTENTS, ALLOC, LOAD, READONLY, DATA
  3 .ARM.extab    00000000  08003058  08003058  00020070  2**0
                  CONTENTS
  4 .ARM          00000008  08003058  08003058  00013058  2**2
                  CONTENTS, ALLOC, LOAD, READONLY, DATA
  5 .preinit_array 00000000  08003060  08003060  00020070  2**0
                  CONTENTS, ALLOC, LOAD, DATA
  6 .init_array   00000008  08003060  08003060  00013060  2**2
                  CONTENTS, ALLOC, LOAD, DATA
  7 .fini_array   00000004  08003068  08003068  00013068  2**2
                  CONTENTS, ALLOC, LOAD, DATA
  8 .data         00000070  20000000  0800306c  00020000  2**2
                  CONTENTS, ALLOC, LOAD, DATA
  9 .bss          00000b04  20000070  080030dc  00020070  2**2
                  ALLOC
 10 ._user_heap_stack 00000604  20000b74  080030dc  00020b74  2**0
                  ALLOC
 11 .ARM.attributes 00000030  00000000  00000000  00020070  2**0
                  CONTENTS, READONLY
 12 .comment      0000007b  00000000  00000000  000200a0  2**0
                  CONTENTS, READONLY
 13 .debug_frame  0000028c  00000000  00000000  0002011c  2**2
                  CONTENTS, READONLY, DEBUGGING

Disassembly of section .text:

08000194 <__do_global_dtors_aux>:
 8000194:	b510      	push	{r4, lr}
 8000196:	4c05      	ldr	r4, [pc, #20]	; (80001ac <__do_global_dtors_aux+0x18>)
 8000198:	7823      	ldrb	r3, [r4, #0]
 800019a:	b933      	cbnz	r3, 80001aa <__do_global_dtors_aux+0x16>
 800019c:	4b04      	ldr	r3, [pc, #16]	; (80001b0 <__do_global_dtors_aux+0x1c>)
 800019e:	b113      	cbz	r3, 80001a6 <__do_global_dtors_aux+0x12>
 80001a0:	4804      	ldr	r0, [pc, #16]	; (80001b4 <__do_global_dtors_aux+0x20>)
 80001a2:	f3af 8000 	nop.w
 80001a6:	2301      	movs	r3, #1
 80001a8:	7023      	strb	r3, [r4, #0]
 80001aa:	bd10      	pop	{r4, pc}
 80001ac:	20000070 	.word	0x20000070
 80001b0:	00000000 	.word	0x00000000
 80001b4:	08002e10 	.word	0x08002e10

080001b8 <frame_dummy>:
 80001b8:	b508      	push	{r3, lr}
 80001ba:	4b03      	ldr	r3, [pc, #12]	; (80001c8 <frame_dummy+0x10>)
 80001bc:	b11b      	cbz	r3, 80001c6 <frame_dummy+0xe>
 80001be:	4903      	ldr	r1, [pc, #12]	; (80001cc <frame_dummy+0x14>)
 80001c0:	4803      	ldr	r0, [pc, #12]	; (80001d0 <frame_dummy+0x18>)
 80001c2:	f3af 8000 	nop.w
 80001c6:	bd08      	pop	{r3, pc}
 80001c8:	00000000 	.word	0x00000000
 80001cc:	20000074 	.word	0x20000074
 80001d0:	08002e10 	.word	0x08002e10

080001d4 <strlen>:
 80001d4:	4603      	mov	r3, r0
 80001d6:	f813 2b01 	ldrb.w	r2, [r3], #1
 80001da:	2a00      	cmp	r2, #0
 80001dc:	d1fb      	bne.n	80001d6 <strlen+0x2>
 80001de:	1a18      	subs	r0, r3, r0
 80001e0:	3801      	subs	r0, #1
 80001e2:	4770      	bx	lr

080001e4 <__aeabi_uldivmod>:
 80001e4:	b953      	cbnz	r3, 80001fc <__aeabi_uldivmod+0x18>
 80001e6:	b94a      	cbnz	r2, 80001fc <__aeabi_uldivmod+0x18>
 80001e8:	2900      	cmp	r1, #0
 80001ea:	bf08      	it	eq
 80001ec:	2800      	cmpeq	r0, #0
 80001ee:	bf1c      	itt	ne
 80001f0:	f04f 31ff 	movne.w	r1, #4294967295	; 0xffffffff
 80001f4:	f04f 30ff 	movne.w	r0, #4294967295	; 0xffffffff
 80001f8:	f000 b972 	b.w	80004e0 <__aeabi_idiv0>
 80001fc:	f1ad 0c08 	sub.w	ip, sp, #8
 8000200:	e96d ce04 	strd	ip, lr, [sp, #-16]!
 8000204:	f000 f806 	bl	8000214 <__udivmoddi4>
 8000208:	f8dd e004 	ldr.w	lr, [sp, #4]
 800020c:	e9dd 2302 	ldrd	r2, r3, [sp, #8]
 8000210:	b004      	add	sp, #16
 8000212:	4770      	bx	lr

08000214 <__udivmoddi4>:
 8000214:	e92d 47f0 	stmdb	sp!, {r4, r5, r6, r7, r8, r9, sl, lr}
 8000218:	9e08      	ldr	r6, [sp, #32]
 800021a:	4604      	mov	r4, r0
 800021c:	4688      	mov	r8, r1
 800021e:	2b00      	cmp	r3, #0
 8000220:	d14b      	bne.n	80002ba <__udivmoddi4+0xa6>
 8000222:	428a      	cmp	r2, r1
 8000224:	4615      	mov	r5, r2
 8000226:	d967      	bls.n	80002f8 <__udivmoddi4+0xe4>
 8000228:	fab2 f282 	clz	r2, r2
 800022c:	b14a      	cbz	r2, 8000242 <__udivmoddi4+0x2e>
 800022e:	f1c2 0720 	rsb	r7, r2, #32
 8000232:	fa01 f302 	lsl.w	r3, r1, r2
 8000236:	fa20 f707 	lsr.w	r7, r0, r7
 800023a:	4095      	lsls	r5, r2
 800023c:	ea47 0803 	orr.w	r8, r7, r3
 8000240:	4094      	lsls	r4, r2
 8000242:	ea4f 4e15 	mov.w	lr, r5, lsr #16
 8000246:	0c23      	lsrs	r3, r4, #16
 8000248:	fbb8 f7fe 	udiv	r7, r8, lr
 800024c:	fa1f fc85 	uxth.w	ip, r5
 8000250:	fb0e 8817 	mls	r8, lr, r7, r8
 8000254:	ea43 4308 	orr.w	r3, r3, r8, lsl #16
 8000258:	fb07 f10c 	mul.w	r1, r7, ip
 800025c:	4299      	cmp	r1, r3
 800025e:	d909      	bls.n	8000274 <__udivmoddi4+0x60>
 8000260:	18eb      	adds	r3, r5, r3
 8000262:	f107 30ff 	add.w	r0, r7, #4294967295	; 0xffffffff
 8000266:	f080 811b 	bcs.w	80004a0 <__udivmoddi4+0x28c>
 800026a:	4299      	cmp	r1, r3
 800026c:	f240 8118 	bls.w	80004a0 <__udivmoddi4+0x28c>
 8000270:	3f02      	subs	r7, #2
 8000272:	442b      	add	r3, r5
 8000274:	1a5b      	subs	r3, r3, r1
 8000276:	b2a4      	uxth	r4, r4
 8000278:	fbb3 f0fe 	udiv	r0, r3, lr
 800027c:	fb0e 3310 	mls	r3, lr, r0, r3
 8000280:	ea44 4403 	orr.w	r4, r4, r3, lsl #16
 8000284:	fb00 fc0c 	mul.w	ip, r0, ip
 8000288:	45a4      	cmp	ip, r4
 800028a:	d909      	bls.n	80002a0 <__udivmoddi4+0x8c>
 800028c:	192c      	adds	r4, r5, r4
 800028e:	f100 33ff 	add.w	r3, r0, #4294967295	; 0xffffffff
 8000292:	f080 8107 	bcs.w	80004a4 <__udivmoddi4+0x290>
 8000296:	45a4      	cmp	ip, r4
 8000298:	f240 8104 	bls.w	80004a4 <__udivmoddi4+0x290>
 800029c:	3802      	subs	r0, #2
 800029e:	442c      	add	r4, r5
 80002a0:	ea40 4007 	orr.w	r0, r0, r7, lsl #16
 80002a4:	eba4 040c 	sub.w	r4, r4, ip
 80002a8:	2700      	movs	r7, #0
 80002aa:	b11e      	cbz	r6, 80002b4 <__udivmoddi4+0xa0>
 80002ac:	40d4      	lsrs	r4, r2
 80002ae:	2300      	movs	r3, #0
 80002b0:	e9c6 4300 	strd	r4, r3, [r6]
 80002b4:	4639      	mov	r1, r7
 80002b6:	e8bd 87f0 	ldmia.w	sp!, {r4, r5, r6, r7, r8, r9, sl, pc}
 80002ba:	428b      	cmp	r3, r1
 80002bc:	d909      	bls.n	80002d2 <__udivmoddi4+0xbe>
 80002be:	2e00      	cmp	r6, #0
 80002c0:	f000 80eb 	beq.w	800049a <__udivmoddi4+0x286>
 80002c4:	2700      	movs	r7, #0
 80002c6:	e9c6 0100 	strd	r0, r1, [r6]
 80002ca:	4638      	mov	r0, r7
 80002cc:	4639      	mov	r1, r7
 80002ce:	e8bd 87f0 	ldmia.w	sp!, {r4, r5, r6, r7, r8, r9, sl, pc}
 80002d2:	fab3 f783 	clz	r7, r3
 80002d6:	2f00      	cmp	r7, #0
 80002d8:	d147      	bne.n	800036a <__udivmoddi4+0x156>
 80002da:	428b      	cmp	r3, r1
 80002dc:	d302      	bcc.n	80002e4 <__udivmoddi4+0xd0>
 80002de:	4282      	cmp	r2, r0
 80002e0:	f200 80fa 	bhi.w	80004d8 <__udivmoddi4+0x2c4>
 80002e4:	1a84      	subs	r4, r0, r2
 80002e6:	eb61 0303 	sbc.w	r3, r1, r3
 80002ea:	2001      	movs	r0, #1
 80002ec:	4698      	mov	r8, r3
 80002ee:	2e00      	cmp	r6, #0
 80002f0:	d0e0      	beq.n	80002b4 <__udivmoddi4+0xa0>
 80002f2:	e9c6 4800 	strd	r4, r8, [r6]
 80002f6:	e7dd      	b.n	80002b4 <__udivmoddi4+0xa0>
 80002f8:	b902      	cbnz	r2, 80002fc <__udivmoddi4+0xe8>
 80002fa:	deff      	udf	#255	; 0xff
 80002fc:	fab2 f282 	clz	r2, r2
 8000300:	2a00      	cmp	r2, #0
 8000302:	f040 808f 	bne.w	8000424 <__udivmoddi4+0x210>
 8000306:	1b49      	subs	r1, r1, r5
 8000308:	ea4f 4e15 	mov.w	lr, r5, lsr #16
 800030c:	fa1f f885 	uxth.w	r8, r5
 8000310:	2701      	movs	r7, #1
 8000312:	fbb1 fcfe 	udiv	ip, r1, lr
 8000316:	0c23      	lsrs	r3, r4, #16
 8000318:	fb0e 111c 	mls	r1, lr, ip, r1
 800031c:	ea43 4301 	orr.w	r3, r3, r1, lsl #16
 8000320:	fb08 f10c 	mul.w	r1, r8, ip
 8000324:	4299      	cmp	r1, r3
 8000326:	d907      	bls.n	8000338 <__udivmoddi4+0x124>
 8000328:	18eb      	adds	r3, r5, r3
 800032a:	f10c 30ff 	add.w	r0, ip, #4294967295	; 0xffffffff
 800032e:	d202      	bcs.n	8000336 <__udivmoddi4+0x122>
 8000330:	4299      	cmp	r1, r3
 8000332:	f200 80cd 	bhi.w	80004d0 <__udivmoddi4+0x2bc>
 8000336:	4684      	mov	ip, r0
 8000338:	1a59      	subs	r1, r3, r1
 800033a:	b2a3      	uxth	r3, r4
 800033c:	fbb1 f0fe 	udiv	r0, r1, lr
 8000340:	fb0e 1410 	mls	r4, lr, r0, r1
 8000344:	ea43 4404 	orr.w	r4, r3, r4, lsl #16
 8000348:	fb08 f800 	mul.w	r8, r8, r0
 800034c:	45a0      	cmp	r8, r4
 800034e:	d907      	bls.n	8000360 <__udivmoddi4+0x14c>
 8000350:	192c      	adds	r4, r5, r4
 8000352:	f100 33ff 	add.w	r3, r0, #4294967295	; 0xffffffff
 8000356:	d202      	bcs.n	800035e <__udivmoddi4+0x14a>
 8000358:	45a0      	cmp	r8, r4
 800035a:	f200 80b6 	bhi.w	80004ca <__udivmoddi4+0x2b6>
 800035e:	4618      	mov	r0, r3
 8000360:	eba4 0408 	sub.w	r4, r4, r8
 8000364:	ea40 400c 	orr.w	r0, r0, ip, lsl #16
 8000368:	e79f      	b.n	80002aa <__udivmoddi4+0x96>
 800036a:	f1c7 0c20 	rsb	ip, r7, #32
 800036e:	40bb      	lsls	r3, r7
 8000370:	fa22 fe0c 	lsr.w	lr, r2, ip
 8000374:	ea4e 0e03 	orr.w	lr, lr, r3
 8000378:	fa01 f407 	lsl.w	r4, r1, r7
 800037c:	fa20 f50c 	lsr.w	r5, r0, ip
 8000380:	fa21 f30c 	lsr.w	r3, r1, ip
 8000384:	ea4f 481e 	mov.w	r8, lr, lsr #16
 8000388:	4325      	orrs	r5, r4
 800038a:	fbb3 f9f8 	udiv	r9, r3, r8
 800038e:	0c2c      	lsrs	r4, r5, #16
 8000390:	fb08 3319 	mls	r3, r8, r9, r3
 8000394:	fa1f fa8e 	uxth.w	sl, lr
 8000398:	ea44 4303 	orr.w	r3, r4, r3, lsl #16
 800039c:	fb09 f40a 	mul.w	r4, r9, sl
 80003a0:	429c      	cmp	r4, r3
 80003a2:	fa02 f207 	lsl.w	r2, r2, r7
 80003a6:	fa00 f107 	lsl.w	r1, r0, r7
 80003aa:	d90b      	bls.n	80003c4 <__udivmoddi4+0x1b0>
 80003ac:	eb1e 0303 	adds.w	r3, lr, r3
 80003b0:	f109 30ff 	add.w	r0, r9, #4294967295	; 0xffffffff
 80003b4:	f080 8087 	bcs.w	80004c6 <__udivmoddi4+0x2b2>
 80003b8:	429c      	cmp	r4, r3
 80003ba:	f240 8084 	bls.w	80004c6 <__udivmoddi4+0x2b2>
 80003be:	f1a9 0902 	sub.w	r9, r9, #2
 80003c2:	4473      	add	r3, lr
 80003c4:	1b1b      	subs	r3, r3, r4
 80003c6:	b2ad      	uxth	r5, r5
 80003c8:	fbb3 f0f8 	udiv	r0, r3, r8
 80003cc:	fb08 3310 	mls	r3, r8, r0, r3
 80003d0:	ea45 4403 	orr.w	r4, r5, r3, lsl #16
 80003d4:	fb00 fa0a 	mul.w	sl, r0, sl
 80003d8:	45a2      	cmp	sl, r4
 80003da:	d908      	bls.n	80003ee <__udivmoddi4+0x1da>
 80003dc:	eb1e 0404 	adds.w	r4, lr, r4
 80003e0:	f100 33ff 	add.w	r3, r0, #4294967295	; 0xffffffff
 80003e4:	d26b      	bcs.n	80004be <__udivmoddi4+0x2aa>
 80003e6:	45a2      	cmp	sl, r4
 80003e8:	d969      	bls.n	80004be <__udivmoddi4+0x2aa>
 80003ea:	3802      	subs	r0, #2
 80003ec:	4474      	add	r4, lr
 80003ee:	ea40 4009 	orr.w	r0, r0, r9, lsl #16
 80003f2:	fba0 8902 	umull	r8, r9, r0, r2
 80003f6:	eba4 040a 	sub.w	r4, r4, sl
 80003fa:	454c      	cmp	r4, r9
 80003fc:	46c2      	mov	sl, r8
 80003fe:	464b      	mov	r3, r9
 8000400:	d354      	bcc.n	80004ac <__udivmoddi4+0x298>
 8000402:	d051      	beq.n	80004a8 <__udivmoddi4+0x294>
 8000404:	2e00      	cmp	r6, #0
 8000406:	d069      	beq.n	80004dc <__udivmoddi4+0x2c8>
 8000408:	ebb1 050a 	subs.w	r5, r1, sl
 800040c:	eb64 0403 	sbc.w	r4, r4, r3
 8000410:	fa04 fc0c 	lsl.w	ip, r4, ip
 8000414:	40fd      	lsrs	r5, r7
 8000416:	40fc      	lsrs	r4, r7
 8000418:	ea4c 0505 	orr.w	r5, ip, r5
 800041c:	e9c6 5400 	strd	r5, r4, [r6]
 8000420:	2700      	movs	r7, #0
 8000422:	e747      	b.n	80002b4 <__udivmoddi4+0xa0>
 8000424:	f1c2 0320 	rsb	r3, r2, #32
 8000428:	fa20 f703 	lsr.w	r7, r0, r3
 800042c:	4095      	lsls	r5, r2
 800042e:	fa01 f002 	lsl.w	r0, r1, r2
 8000432:	fa21 f303 	lsr.w	r3, r1, r3
 8000436:	ea4f 4e15 	mov.w	lr, r5, lsr #16
 800043a:	4338      	orrs	r0, r7
 800043c:	0c01      	lsrs	r1, r0, #16
 800043e:	fbb3 f7fe 	udiv	r7, r3, lr
 8000442:	fa1f f885 	uxth.w	r8, r5
 8000446:	fb0e 3317 	mls	r3, lr, r7, r3
 800044a:	ea41 4103 	orr.w	r1, r1, r3, lsl #16
 800044e:	fb07 f308 	mul.w	r3, r7, r8
 8000452:	428b      	cmp	r3, r1
 8000454:	fa04 f402 	lsl.w	r4, r4, r2
 8000458:	d907      	bls.n	800046a <__udivmoddi4+0x256>
 800045a:	1869      	adds	r1, r5, r1
 800045c:	f107 3cff 	add.w	ip, r7, #4294967295	; 0xffffffff
 8000460:	d22f      	bcs.n	80004c2 <__udivmoddi4+0x2ae>
 8000462:	428b      	cmp	r3, r1
 8000464:	d92d      	bls.n	80004c2 <__udivmoddi4+0x2ae>
 8000466:	3f02      	subs	r7, #2
 8000468:	4429      	add	r1, r5
 800046a:	1acb      	subs	r3, r1, r3
 800046c:	b281      	uxth	r1, r0
 800046e:	fbb3 f0fe 	udiv	r0, r3, lr
 8000472:	fb0e 3310 	mls	r3, lr, r0, r3
 8000476:	ea41 4103 	orr.w	r1, r1, r3, lsl #16
 800047a:	fb00 f308 	mul.w	r3, r0, r8
 800047e:	428b      	cmp	r3, r1
 8000480:	d907      	bls.n	8000492 <__udivmoddi4+0x27e>
 8000482:	1869      	adds	r1, r5, r1
 8000484:	f100 3cff 	add.w	ip, r0, #4294967295	; 0xffffffff
 8000488:	d217      	bcs.n	80004ba <__udivmoddi4+0x2a6>
 800048a:	428b      	cmp	r3, r1
 800048c:	d915      	bls.n	80004ba <__udivmoddi4+0x2a6>
 800048e:	3802      	subs	r0, #2
 8000490:	4429      	add	r1, r5
 8000492:	1ac9      	subs	r1, r1, r3
 8000494:	ea40 4707 	orr.w	r7, r0, r7, lsl #16
 8000498:	e73b      	b.n	8000312 <__udivmoddi4+0xfe>
 800049a:	4637      	mov	r7, r6
 800049c:	4630      	mov	r0, r6
 800049e:	e709      	b.n	80002b4 <__udivmoddi4+0xa0>
 80004a0:	4607      	mov	r7, r0
 80004a2:	e6e7      	b.n	8000274 <__udivmoddi4+0x60>
 80004a4:	4618      	mov	r0, r3
 80004a6:	e6fb      	b.n	80002a0 <__udivmoddi4+0x8c>
 80004a8:	4541      	cmp	r1, r8
 80004aa:	d2ab      	bcs.n	8000404 <__udivmoddi4+0x1f0>
 80004ac:	ebb8 0a02 	subs.w	sl, r8, r2
 80004b0:	eb69 020e 	sbc.w	r2, r9, lr
 80004b4:	3801      	subs	r0, #1
 80004b6:	4613      	mov	r3, r2
 80004b8:	e7a4      	b.n	8000404 <__udivmoddi4+0x1f0>
 80004ba:	4660      	mov	r0, ip
 80004bc:	e7e9      	b.n	8000492 <__udivmoddi4+0x27e>
 80004be:	4618      	mov	r0, r3
 80004c0:	e795      	b.n	80003ee <__udivmoddi4+0x1da>
 80004c2:	4667      	mov	r7, ip
 80004c4:	e7d1      	b.n	800046a <__udivmoddi4+0x256>
 80004c6:	4681      	mov	r9, r0
 80004c8:	e77c      	b.n	80003c4 <__udivmoddi4+0x1b0>
 80004ca:	3802      	subs	r0, #2
 80004cc:	442c      	add	r4, r5
 80004ce:	e747      	b.n	8000360 <__udivmoddi4+0x14c>
 80004d0:	f1ac 0c02 	sub.w	ip, ip, #2
 80004d4:	442b      	add	r3, r5
 80004d6:	e72f      	b.n	8000338 <__udivmoddi4+0x124>
 80004d8:	4638      	mov	r0, r7
 80004da:	e708      	b.n	80002ee <__udivmoddi4+0xda>
 80004dc:	4637      	mov	r7, r6
 80004de:	e6e9      	b.n	80002b4 <__udivmoddi4+0xa0>

080004e0 <__aeabi_idiv0>:
 80004e0:	4770      	bx	lr
 80004e2:	bf00      	nop

080004e4 <_ZN3ros16normalizeSecNSecERmS0_>:
 80004e4:	b530      	push	{r4, r5, lr}
 80004e6:	6802      	ldr	r2, [r0, #0]
 80004e8:	680d      	ldr	r5, [r1, #0]
 80004ea:	4c04      	ldr	r4, [pc, #16]	; (80004fc <_ZN3ros16normalizeSecNSecERmS0_+0x18>)
 80004ec:	fbb5 f3f4 	udiv	r3, r5, r4
 80004f0:	441a      	add	r2, r3
 80004f2:	fb04 5313 	mls	r3, r4, r3, r5
 80004f6:	6002      	str	r2, [r0, #0]
 80004f8:	600b      	str	r3, [r1, #0]
 80004fa:	bd30      	pop	{r4, r5, pc}
 80004fc:	3b9aca00 	.word	0x3b9aca00

08000500 <SystemClock_Config>:
 8000500:	b530      	push	{r4, r5, lr}
 8000502:	2414      	movs	r4, #20
 8000504:	b095      	sub	sp, #84	; 0x54
 8000506:	4622      	mov	r2, r4
 8000508:	2100      	movs	r1, #0
 800050a:	a809      	add	r0, sp, #36	; 0x24
 800050c:	f002 fb87 	bl	8002c1e <memset>
 8000510:	4622      	mov	r2, r4
 8000512:	2100      	movs	r1, #0
 8000514:	a803      	add	r0, sp, #12
 8000516:	f002 fb82 	bl	8002c1e <memset>
 800051a:	2400      	movs	r4, #0
 800051c:	4b1c      	ldr	r3, [pc, #112]	; (8000590 <SystemClock_Config+0x90>)
 800051e:	9401      	str	r4, [sp, #4]
 8000520:	6c1a      	ldr	r2, [r3, #64]	; 0x40
 8000522:	f042 5280 	orr.w	r2, r2, #268435456	; 0x10000000
 8000526:	641a      	str	r2, [r3, #64]	; 0x40
 8000528:	6c1b      	ldr	r3, [r3, #64]	; 0x40
 800052a:	4a1a      	ldr	r2, [pc, #104]	; (8000594 <SystemClock_Config+0x94>)
 800052c:	f003 5380 	and.w	r3, r3, #268435456	; 0x10000000
 8000530:	9301      	str	r3, [sp, #4]
 8000532:	9b01      	ldr	r3, [sp, #4]
 8000534:	9402      	str	r4, [sp, #8]
 8000536:	6813      	ldr	r3, [r2, #0]
 8000538:	f423 4340 	bic.w	r3, r3, #49152	; 0xc000
 800053c:	f443 4300 	orr.w	r3, r3, #32768	; 0x8000
 8000540:	6013      	str	r3, [r2, #0]
 8000542:	6813      	ldr	r3, [r2, #0]
 8000544:	f403 4340 	and.w	r3, r3, #49152	; 0xc000
 8000548:	9302      	str	r3, [sp, #8]
 800054a:	2201      	movs	r2, #1
 800054c:	9b02      	ldr	r3, [sp, #8]
 800054e:	2310      	movs	r3, #16
 8000550:	e9cd 230b 	strd	r2, r3, [sp, #44]	; 0x2c
 8000554:	9310      	str	r3, [sp, #64]	; 0x40
 8000556:	f44f 71a8 	mov.w	r1, #336	; 0x150
 800055a:	2304      	movs	r3, #4
 800055c:	2502      	movs	r5, #2
 800055e:	e9cd 1311 	strd	r1, r3, [sp, #68]	; 0x44
 8000562:	a808      	add	r0, sp, #32
 8000564:	2307      	movs	r3, #7
 8000566:	9313      	str	r3, [sp, #76]	; 0x4c
 8000568:	9508      	str	r5, [sp, #32]
 800056a:	e9cd 540e 	strd	r5, r4, [sp, #56]	; 0x38
 800056e:	f001 fb69 	bl	8001c44 <HAL_RCC_OscConfig>
 8000572:	230f      	movs	r3, #15
 8000574:	e9cd 3503 	strd	r3, r5, [sp, #12]
 8000578:	4629      	mov	r1, r5
 800057a:	f44f 5380 	mov.w	r3, #4096	; 0x1000
 800057e:	a803      	add	r0, sp, #12
 8000580:	9405      	str	r4, [sp, #20]
 8000582:	e9cd 3406 	strd	r3, r4, [sp, #24]
 8000586:	f001 fd31 	bl	8001fec <HAL_RCC_ClockConfig>
 800058a:	b015      	add	sp, #84	; 0x54
 800058c:	bd30      	pop	{r4, r5, pc}
 800058e:	bf00      	nop
 8000590:	40023800 	.word	0x40023800
 8000594:	40007000 	.word	0x40007000

08000598 <main>:
 8000598:	b580      	push	{r7, lr}
 800059a:	b09a      	sub	sp, #104	; 0x68
 800059c:	2400      	movs	r4, #0
 800059e:	4d67      	ldr	r5, [pc, #412]	; (800073c <main+0x1a4>)
 80005a0:	f001 f82e 	bl	8001600 <HAL_Init>
 80005a4:	f7ff ffac 	bl	8000500 <SystemClock_Config>
 80005a8:	2214      	movs	r2, #20
 80005aa:	2100      	movs	r1, #0
 80005ac:	a812      	add	r0, sp, #72	; 0x48
 80005ae:	f002 fb36 	bl	8002c1e <memset>
 80005b2:	9401      	str	r4, [sp, #4]
 80005b4:	6b2b      	ldr	r3, [r5, #48]	; 0x30
 80005b6:	4862      	ldr	r0, [pc, #392]	; (8000740 <main+0x1a8>)
 80005b8:	f043 0304 	orr.w	r3, r3, #4
 80005bc:	632b      	str	r3, [r5, #48]	; 0x30
 80005be:	6b2b      	ldr	r3, [r5, #48]	; 0x30
 80005c0:	f003 0304 	and.w	r3, r3, #4
 80005c4:	9301      	str	r3, [sp, #4]
 80005c6:	9b01      	ldr	r3, [sp, #4]
 80005c8:	9402      	str	r4, [sp, #8]
 80005ca:	6b2b      	ldr	r3, [r5, #48]	; 0x30
 80005cc:	f043 0380 	orr.w	r3, r3, #128	; 0x80
 80005d0:	632b      	str	r3, [r5, #48]	; 0x30
 80005d2:	6b2b      	ldr	r3, [r5, #48]	; 0x30
 80005d4:	f003 0380 	and.w	r3, r3, #128	; 0x80
 80005d8:	9302      	str	r3, [sp, #8]
 80005da:	9b02      	ldr	r3, [sp, #8]
 80005dc:	9403      	str	r4, [sp, #12]
 80005de:	6b2b      	ldr	r3, [r5, #48]	; 0x30
 80005e0:	f043 0301 	orr.w	r3, r3, #1
 80005e4:	632b      	str	r3, [r5, #48]	; 0x30
 80005e6:	6b2b      	ldr	r3, [r5, #48]	; 0x30
 80005e8:	f003 0301 	and.w	r3, r3, #1
 80005ec:	9303      	str	r3, [sp, #12]
 80005ee:	9b03      	ldr	r3, [sp, #12]
 80005f0:	9404      	str	r4, [sp, #16]
 80005f2:	6b2b      	ldr	r3, [r5, #48]	; 0x30
 80005f4:	f043 0302 	orr.w	r3, r3, #2
 80005f8:	632b      	str	r3, [r5, #48]	; 0x30
 80005fa:	6b2b      	ldr	r3, [r5, #48]	; 0x30
 80005fc:	f003 0302 	and.w	r3, r3, #2
 8000600:	4622      	mov	r2, r4
 8000602:	9304      	str	r3, [sp, #16]
 8000604:	2120      	movs	r1, #32
 8000606:	9b04      	ldr	r3, [sp, #16]
 8000608:	f001 fb10 	bl	8001c2c <HAL_GPIO_WritePin>
 800060c:	4b4d      	ldr	r3, [pc, #308]	; (8000744 <main+0x1ac>)
 800060e:	484e      	ldr	r0, [pc, #312]	; (8000748 <main+0x1b0>)
 8000610:	9414      	str	r4, [sp, #80]	; 0x50
 8000612:	f44f 5600 	mov.w	r6, #8192	; 0x2000
 8000616:	a912      	add	r1, sp, #72	; 0x48
 8000618:	e9cd 6312 	strd	r6, r3, [sp, #72]	; 0x48
 800061c:	2720      	movs	r7, #32
 800061e:	f001 fa37 	bl	8001a90 <HAL_GPIO_Init>
 8000622:	2301      	movs	r3, #1
 8000624:	a912      	add	r1, sp, #72	; 0x48
 8000626:	4846      	ldr	r0, [pc, #280]	; (8000740 <main+0x1a8>)
 8000628:	e9cd 7312 	strd	r7, r3, [sp, #72]	; 0x48
 800062c:	e9cd 4414 	strd	r4, r4, [sp, #80]	; 0x50
 8000630:	f001 fa2e 	bl	8001a90 <HAL_GPIO_Init>
 8000634:	9400      	str	r4, [sp, #0]
 8000636:	6b2b      	ldr	r3, [r5, #48]	; 0x30
 8000638:	f443 1300 	orr.w	r3, r3, #2097152	; 0x200000
 800063c:	632b      	str	r3, [r5, #48]	; 0x30
 800063e:	6b2b      	ldr	r3, [r5, #48]	; 0x30
 8000640:	4d42      	ldr	r5, [pc, #264]	; (800074c <main+0x1b4>)
 8000642:	f403 1300 	and.w	r3, r3, #2097152	; 0x200000
 8000646:	4622      	mov	r2, r4
 8000648:	4621      	mov	r1, r4
 800064a:	9300      	str	r3, [sp, #0]
 800064c:	2010      	movs	r0, #16
 800064e:	9b00      	ldr	r3, [sp, #0]
 8000650:	f001 f828 	bl	80016a4 <HAL_NVIC_SetPriority>
 8000654:	2010      	movs	r0, #16
 8000656:	f001 f859 	bl	800170c <HAL_NVIC_EnableIRQ>
 800065a:	4621      	mov	r1, r4
 800065c:	4622      	mov	r2, r4
 800065e:	2011      	movs	r0, #17
 8000660:	f001 f820 	bl	80016a4 <HAL_NVIC_SetPriority>
 8000664:	2011      	movs	r0, #17
 8000666:	f001 f851 	bl	800170c <HAL_NVIC_EnableIRQ>
 800066a:	4839      	ldr	r0, [pc, #228]	; (8000750 <main+0x1b8>)
 800066c:	4a39      	ldr	r2, [pc, #228]	; (8000754 <main+0x1bc>)
 800066e:	6104      	str	r4, [r0, #16]
 8000670:	f44f 4361 	mov.w	r3, #57600	; 0xe100
 8000674:	e9c0 2300 	strd	r2, r3, [r0]
 8000678:	230c      	movs	r3, #12
 800067a:	e9c0 3405 	strd	r3, r4, [r0, #20]
 800067e:	e9c0 4402 	strd	r4, r4, [r0, #8]
 8000682:	61c4      	str	r4, [r0, #28]
 8000684:	f002 f89a 	bl	80027bc <HAL_UART_Init>
 8000688:	2210      	movs	r2, #16
 800068a:	4621      	mov	r1, r4
 800068c:	a807      	add	r0, sp, #28
 800068e:	f002 fac6 	bl	8002c1e <memset>
 8000692:	221c      	movs	r2, #28
 8000694:	4621      	mov	r1, r4
 8000696:	a80b      	add	r0, sp, #44	; 0x2c
 8000698:	e9cd 4405 	strd	r4, r4, [sp, #20]
 800069c:	f002 fabf 	bl	8002c1e <memset>
 80006a0:	463a      	mov	r2, r7
 80006a2:	4621      	mov	r1, r4
 80006a4:	a812      	add	r0, sp, #72	; 0x48
 80006a6:	f002 faba 	bl	8002c1e <memset>
 80006aa:	492b      	ldr	r1, [pc, #172]	; (8000758 <main+0x1c0>)
 80006ac:	60ac      	str	r4, [r5, #8]
 80006ae:	f242 03d0 	movw	r3, #8400	; 0x20d0
 80006b2:	e9c5 1300 	strd	r1, r3, [r5]
 80006b6:	4628      	mov	r0, r5
 80006b8:	f242 7310 	movw	r3, #10000	; 0x2710
 80006bc:	e9c5 3403 	strd	r3, r4, [r5, #12]
 80006c0:	e9c5 4405 	strd	r4, r4, [r5, #20]
 80006c4:	f001 fe10 	bl	80022e8 <HAL_TIM_Base_Init>
 80006c8:	f44f 5380 	mov.w	r3, #4096	; 0x1000
 80006cc:	a907      	add	r1, sp, #28
 80006ce:	4628      	mov	r0, r5
 80006d0:	9307      	str	r3, [sp, #28]
 80006d2:	f001 fed5 	bl	8002480 <HAL_TIM_ConfigClockSource>
 80006d6:	4628      	mov	r0, r5
 80006d8:	f001 fe20 	bl	800231c <HAL_TIM_PWM_Init>
 80006dc:	a905      	add	r1, sp, #20
 80006de:	4628      	mov	r0, r5
 80006e0:	e9cd 4405 	strd	r4, r4, [sp, #20]
 80006e4:	f001 ff8c 	bl	8002600 <HAL_TIMEx_MasterConfigSynchronization>
 80006e8:	2360      	movs	r3, #96	; 0x60
 80006ea:	4622      	mov	r2, r4
 80006ec:	a90b      	add	r1, sp, #44	; 0x2c
 80006ee:	4628      	mov	r0, r5
 80006f0:	e9cd 340b 	strd	r3, r4, [sp, #44]	; 0x2c
 80006f4:	e9cd 440d 	strd	r4, r4, [sp, #52]	; 0x34
 80006f8:	e9cd 440f 	strd	r4, r4, [sp, #60]	; 0x3c
 80006fc:	9411      	str	r4, [sp, #68]	; 0x44
 80006fe:	f001 fe53 	bl	80023a8 <HAL_TIM_PWM_ConfigChannel>
 8000702:	2204      	movs	r2, #4
 8000704:	a90b      	add	r1, sp, #44	; 0x2c
 8000706:	4628      	mov	r0, r5
 8000708:	f001 fe4e 	bl	80023a8 <HAL_TIM_PWM_ConfigChannel>
 800070c:	2208      	movs	r2, #8
 800070e:	a90b      	add	r1, sp, #44	; 0x2c
 8000710:	4628      	mov	r0, r5
 8000712:	f001 fe49 	bl	80023a8 <HAL_TIM_PWM_ConfigChannel>
 8000716:	a912      	add	r1, sp, #72	; 0x48
 8000718:	4628      	mov	r0, r5
 800071a:	e9cd 4412 	strd	r4, r4, [sp, #72]	; 0x48
 800071e:	e9cd 4414 	strd	r4, r4, [sp, #80]	; 0x50
 8000722:	e9cd 4616 	strd	r4, r6, [sp, #88]	; 0x58
 8000726:	9419      	str	r4, [sp, #100]	; 0x64
 8000728:	f001 ffa4 	bl	8002674 <HAL_TIMEx_ConfigBreakDeadTime>
 800072c:	4628      	mov	r0, r5
 800072e:	f000 fe33 	bl	8001398 <HAL_TIM_MspPostInit>
 8000732:	f000 fb5b 	bl	8000dec <setup>
 8000736:	f000 fd69 	bl	800120c <loop>
 800073a:	e7fc      	b.n	8000736 <main+0x19e>
 800073c:	40023800 	.word	0x40023800
 8000740:	40020000 	.word	0x40020000
 8000744:	10210000 	.word	0x10210000
 8000748:	40020800 	.word	0x40020800
 800074c:	20000aec 	.word	0x20000aec
 8000750:	20000b2c 	.word	0x20000b2c
 8000754:	40004400 	.word	0x40004400
 8000758:	40010000 	.word	0x40010000

0800075c <Error_Handler>:
 800075c:	4770      	bx	lr

0800075e <_ZNK8std_msgs4Time9serializeEPh>:
 800075e:	6843      	ldr	r3, [r0, #4]
 8000760:	700b      	strb	r3, [r1, #0]
 8000762:	6843      	ldr	r3, [r0, #4]
 8000764:	0a1b      	lsrs	r3, r3, #8
 8000766:	704b      	strb	r3, [r1, #1]
 8000768:	88c3      	ldrh	r3, [r0, #6]
 800076a:	708b      	strb	r3, [r1, #2]
 800076c:	79c3      	ldrb	r3, [r0, #7]
 800076e:	70cb      	strb	r3, [r1, #3]
 8000770:	6883      	ldr	r3, [r0, #8]
 8000772:	710b      	strb	r3, [r1, #4]
 8000774:	6883      	ldr	r3, [r0, #8]
 8000776:	0a1b      	lsrs	r3, r3, #8
 8000778:	714b      	strb	r3, [r1, #5]
 800077a:	8943      	ldrh	r3, [r0, #10]
 800077c:	718b      	strb	r3, [r1, #6]
 800077e:	7ac3      	ldrb	r3, [r0, #11]
 8000780:	71cb      	strb	r3, [r1, #7]
 8000782:	2008      	movs	r0, #8
 8000784:	4770      	bx	lr

08000786 <_ZN8std_msgs4Time11deserializeEPh>:
 8000786:	780b      	ldrb	r3, [r1, #0]
 8000788:	6043      	str	r3, [r0, #4]
 800078a:	784a      	ldrb	r2, [r1, #1]
 800078c:	ea43 2302 	orr.w	r3, r3, r2, lsl #8
 8000790:	6043      	str	r3, [r0, #4]
 8000792:	788a      	ldrb	r2, [r1, #2]
 8000794:	ea43 4302 	orr.w	r3, r3, r2, lsl #16
 8000798:	6043      	str	r3, [r0, #4]
 800079a:	78ca      	ldrb	r2, [r1, #3]
 800079c:	ea43 6302 	orr.w	r3, r3, r2, lsl #24
 80007a0:	6043      	str	r3, [r0, #4]
 80007a2:	790b      	ldrb	r3, [r1, #4]
 80007a4:	6083      	str	r3, [r0, #8]
 80007a6:	794a      	ldrb	r2, [r1, #5]
 80007a8:	ea43 2302 	orr.w	r3, r3, r2, lsl #8
 80007ac:	6083      	str	r3, [r0, #8]
 80007ae:	798a      	ldrb	r2, [r1, #6]
 80007b0:	ea43 4302 	orr.w	r3, r3, r2, lsl #16
 80007b4:	6083      	str	r3, [r0, #8]
 80007b6:	79ca      	ldrb	r2, [r1, #7]
 80007b8:	ea43 6302 	orr.w	r3, r3, r2, lsl #24
 80007bc:	6083      	str	r3, [r0, #8]
 80007be:	2008      	movs	r0, #8
 80007c0:	4770      	bx	lr
	...

080007c4 <_ZN8std_msgs4Time7getTypeEv>:
 80007c4:	4800      	ldr	r0, [pc, #0]	; (80007c8 <_ZN8std_msgs4Time7getTypeEv+0x4>)
 80007c6:	4770      	bx	lr
 80007c8:	08002ff8 	.word	0x08002ff8

080007cc <_ZN8std_msgs4Time6getMD5Ev>:
 80007cc:	4800      	ldr	r0, [pc, #0]	; (80007d0 <_ZN8std_msgs4Time6getMD5Ev+0x4>)
 80007ce:	4770      	bx	lr
 80007d0:	08002fd7 	.word	0x08002fd7

080007d4 <_ZN14rosserial_msgs9TopicInfo7getTypeEv>:
 80007d4:	4800      	ldr	r0, [pc, #0]	; (80007d8 <_ZN14rosserial_msgs9TopicInfo7getTypeEv+0x4>)
 80007d6:	4770      	bx	lr
 80007d8:	08002f69 	.word	0x08002f69

080007dc <_ZN14rosserial_msgs9TopicInfo6getMD5Ev>:
 80007dc:	4800      	ldr	r0, [pc, #0]	; (80007e0 <_ZN14rosserial_msgs9TopicInfo6getMD5Ev+0x4>)
 80007de:	4770      	bx	lr
 80007e0:	08002f48 	.word	0x08002f48

080007e4 <_ZN14rosserial_msgs3Log7getTypeEv>:
 80007e4:	4800      	ldr	r0, [pc, #0]	; (80007e8 <_ZN14rosserial_msgs3Log7getTypeEv+0x4>)
 80007e6:	4770      	bx	lr
 80007e8:	08002f35 	.word	0x08002f35

080007ec <_ZN14rosserial_msgs3Log6getMD5Ev>:
 80007ec:	4800      	ldr	r0, [pc, #0]	; (80007f0 <_ZN14rosserial_msgs3Log6getMD5Ev+0x4>)
 80007ee:	4770      	bx	lr
 80007f0:	08002f14 	.word	0x08002f14

080007f4 <_ZN14rosserial_msgs20RequestParamResponse7getTypeEv>:
 80007f4:	4800      	ldr	r0, [pc, #0]	; (80007f8 <_ZN14rosserial_msgs20RequestParamResponse7getTypeEv+0x4>)
 80007f6:	4770      	bx	lr
 80007f8:	08002f82 	.word	0x08002f82

080007fc <_ZN14rosserial_msgs20RequestParamResponse6getMD5Ev>:
 80007fc:	4800      	ldr	r0, [pc, #0]	; (8000800 <_ZN14rosserial_msgs20RequestParamResponse6getMD5Ev+0x4>)
 80007fe:	4770      	bx	lr
 8000800:	08002ef3 	.word	0x08002ef3

08000804 <_ZNK8std_msgs6UInt169serializeEPh>:
 8000804:	8883      	ldrh	r3, [r0, #4]
 8000806:	700b      	strb	r3, [r1, #0]
 8000808:	8883      	ldrh	r3, [r0, #4]
 800080a:	0a1b      	lsrs	r3, r3, #8
 800080c:	704b      	strb	r3, [r1, #1]
 800080e:	2002      	movs	r0, #2
 8000810:	4770      	bx	lr

08000812 <_ZN8std_msgs6UInt1611deserializeEPh>:
 8000812:	780b      	ldrb	r3, [r1, #0]
 8000814:	8083      	strh	r3, [r0, #4]
 8000816:	784a      	ldrb	r2, [r1, #1]
 8000818:	ea43 2302 	orr.w	r3, r3, r2, lsl #8
 800081c:	8083      	strh	r3, [r0, #4]
 800081e:	2002      	movs	r0, #2
 8000820:	4770      	bx	lr
	...

08000824 <_ZN8std_msgs6UInt167getTypeEv>:
 8000824:	4800      	ldr	r0, [pc, #0]	; (8000828 <_ZN8std_msgs6UInt167getTypeEv+0x4>)
 8000826:	4770      	bx	lr
 8000828:	08003027 	.word	0x08003027

0800082c <_ZN8std_msgs6UInt166getMD5Ev>:
 800082c:	4800      	ldr	r0, [pc, #0]	; (8000830 <_ZN8std_msgs6UInt166getMD5Ev+0x4>)
 800082e:	4770      	bx	lr
 8000830:	08003006 	.word	0x08003006

08000834 <_Z25tim_channel1_led_callBackRKN8std_msgs6UInt16E>:
 8000834:	4b02      	ldr	r3, [pc, #8]	; (8000840 <_Z25tim_channel1_led_callBackRKN8std_msgs6UInt16E+0xc>)
 8000836:	8882      	ldrh	r2, [r0, #4]
 8000838:	681b      	ldr	r3, [r3, #0]
 800083a:	635a      	str	r2, [r3, #52]	; 0x34
 800083c:	4770      	bx	lr
 800083e:	bf00      	nop
 8000840:	20000aec 	.word	0x20000aec

08000844 <_Z25tim_channel2_led_callBackRKN8std_msgs6UInt16E>:
 8000844:	4b02      	ldr	r3, [pc, #8]	; (8000850 <_Z25tim_channel2_led_callBackRKN8std_msgs6UInt16E+0xc>)
 8000846:	8882      	ldrh	r2, [r0, #4]
 8000848:	681b      	ldr	r3, [r3, #0]
 800084a:	639a      	str	r2, [r3, #56]	; 0x38
 800084c:	4770      	bx	lr
 800084e:	bf00      	nop
 8000850:	20000aec 	.word	0x20000aec

08000854 <_Z25tim_channel3_led_callBackRKN8std_msgs6UInt16E>:
 8000854:	4b02      	ldr	r3, [pc, #8]	; (8000860 <_Z25tim_channel3_led_callBackRKN8std_msgs6UInt16E+0xc>)
 8000856:	8882      	ldrh	r2, [r0, #4]
 8000858:	681b      	ldr	r3, [r3, #0]
 800085a:	63da      	str	r2, [r3, #60]	; 0x3c
 800085c:	4770      	bx	lr
 800085e:	bf00      	nop
 8000860:	20000aec 	.word	0x20000aec

08000864 <_ZN3ros10SubscriberIN8std_msgs6UInt16EvE8callbackEPh>:
 8000864:	b570      	push	{r4, r5, r6, lr}
 8000866:	4605      	mov	r5, r0
 8000868:	f100 040c 	add.w	r4, r0, #12
 800086c:	4620      	mov	r0, r4
 800086e:	f7ff ffd0 	bl	8000812 <_ZN8std_msgs6UInt1611deserializeEPh>
 8000872:	696b      	ldr	r3, [r5, #20]
 8000874:	4620      	mov	r0, r4
 8000876:	e8bd 4070 	ldmia.w	sp!, {r4, r5, r6, lr}
 800087a:	4718      	bx	r3

0800087c <_ZN3ros10SubscriberIN8std_msgs6UInt16EvE15getEndpointTypeEv>:
 800087c:	6980      	ldr	r0, [r0, #24]
 800087e:	4770      	bx	lr

08000880 <_ZN3ros10SubscriberIN8std_msgs6UInt16EvE10getMsgTypeEv>:
 8000880:	4800      	ldr	r0, [pc, #0]	; (8000884 <_ZN3ros10SubscriberIN8std_msgs6UInt16EvE10getMsgTypeEv+0x4>)
 8000882:	4770      	bx	lr
 8000884:	08003027 	.word	0x08003027

08000888 <_ZN3ros10SubscriberIN8std_msgs6UInt16EvE9getMsgMD5Ev>:
 8000888:	4800      	ldr	r0, [pc, #0]	; (800088c <_ZN3ros10SubscriberIN8std_msgs6UInt16EvE9getMsgMD5Ev+0x4>)
 800088a:	4770      	bx	lr
 800088c:	08003006 	.word	0x08003006

08000890 <_ZN3ros11NodeHandle_I13STM32HardwareLi25ELi25ELi512ELi512EE9connectedEv>:
 8000890:	f890 0900 	ldrb.w	r0, [r0, #2304]	; 0x900
 8000894:	4770      	bx	lr
	...

08000898 <_ZN13STM32Hardware5flushEv>:
 8000898:	b570      	push	{r4, r5, r6, lr}
 800089a:	6803      	ldr	r3, [r0, #0]
 800089c:	f893 3039 	ldrb.w	r3, [r3, #57]	; 0x39
 80008a0:	2b20      	cmp	r3, #32
 80008a2:	4605      	mov	r5, r0
 80008a4:	d120      	bne.n	80008e8 <_ZN13STM32Hardware5flushEv+0x50>
 80008a6:	4e11      	ldr	r6, [pc, #68]	; (80008ec <_ZN13STM32Hardware5flushEv+0x54>)
 80008a8:	7833      	ldrb	r3, [r6, #0]
 80008aa:	b9eb      	cbnz	r3, 80008e8 <_ZN13STM32Hardware5flushEv+0x50>
 80008ac:	2301      	movs	r3, #1
 80008ae:	7033      	strb	r3, [r6, #0]
 80008b0:	f8d0 140c 	ldr.w	r1, [r0, #1036]	; 0x40c
 80008b4:	f8d0 3408 	ldr.w	r3, [r0, #1032]	; 0x408
 80008b8:	428b      	cmp	r3, r1
 80008ba:	d013      	beq.n	80008e4 <_ZN13STM32Hardware5flushEv+0x4c>
 80008bc:	b28c      	uxth	r4, r1
 80008be:	bf8c      	ite	hi
 80008c0:	1b1c      	subhi	r4, r3, r4
 80008c2:	f5c4 7400 	rsbls	r4, r4, #512	; 0x200
 80008c6:	b2a4      	uxth	r4, r4
 80008c8:	f501 7102 	add.w	r1, r1, #520	; 0x208
 80008cc:	4622      	mov	r2, r4
 80008ce:	4401      	add	r1, r0
 80008d0:	6800      	ldr	r0, [r0, #0]
 80008d2:	f001 ffa1 	bl	8002818 <HAL_UART_Transmit_DMA>
 80008d6:	f8d5 340c 	ldr.w	r3, [r5, #1036]	; 0x40c
 80008da:	441c      	add	r4, r3
 80008dc:	f3c4 0408 	ubfx	r4, r4, #0, #9
 80008e0:	f8c5 440c 	str.w	r4, [r5, #1036]	; 0x40c
 80008e4:	2300      	movs	r3, #0
 80008e6:	7033      	strb	r3, [r6, #0]
 80008e8:	bd70      	pop	{r4, r5, r6, pc}
 80008ea:	bf00      	nop
 80008ec:	2000008c 	.word	0x2000008c

080008f0 <_ZN3ros11NodeHandle_I13STM32HardwareLi25ELi25ELi512ELi512EE7publishEiPKNS_3MsgE>:
 80008f0:	2963      	cmp	r1, #99	; 0x63
 80008f2:	e92d 41ff 	stmdb	sp!, {r0, r1, r2, r3, r4, r5, r6, r7, r8, lr}
 80008f6:	4604      	mov	r4, r0
 80008f8:	460e      	mov	r6, r1
 80008fa:	dd03      	ble.n	8000904 <_ZN3ros11NodeHandle_I13STM32HardwareLi25ELi25ELi512ELi512EE7publishEiPKNS_3MsgE+0x14>
 80008fc:	f890 5900 	ldrb.w	r5, [r0, #2304]	; 0x900
 8000900:	2d00      	cmp	r5, #0
 8000902:	d053      	beq.n	80009ac <_ZN3ros11NodeHandle_I13STM32HardwareLi25ELi25ELi512ELi512EE7publishEiPKNS_3MsgE+0xbc>
 8000904:	6813      	ldr	r3, [r2, #0]
 8000906:	f204 612b 	addw	r1, r4, #1579	; 0x62b
 800090a:	681b      	ldr	r3, [r3, #0]
 800090c:	4610      	mov	r0, r2
 800090e:	4798      	blx	r3
 8000910:	f64f 63ff 	movw	r3, #65279	; 0xfeff
 8000914:	f3c0 2207 	ubfx	r2, r0, #8, #8
 8000918:	f8a4 3624 	strh.w	r3, [r4, #1572]	; 0x624
 800091c:	b2c3      	uxtb	r3, r0
 800091e:	f884 3626 	strb.w	r3, [r4, #1574]	; 0x626
 8000922:	4413      	add	r3, r2
 8000924:	43db      	mvns	r3, r3
 8000926:	f884 6629 	strb.w	r6, [r4, #1577]	; 0x629
 800092a:	f346 2607 	sbfx	r6, r6, #8, #8
 800092e:	f884 2627 	strb.w	r2, [r4, #1575]	; 0x627
 8000932:	f884 3628 	strb.w	r3, [r4, #1576]	; 0x628
 8000936:	f884 662a 	strb.w	r6, [r4, #1578]	; 0x62a
 800093a:	f204 6129 	addw	r1, r4, #1577	; 0x629
 800093e:	2205      	movs	r2, #5
 8000940:	2300      	movs	r3, #0
 8000942:	1d86      	adds	r6, r0, #6
 8000944:	4296      	cmp	r6, r2
 8000946:	db04      	blt.n	8000952 <_ZN3ros11NodeHandle_I13STM32HardwareLi25ELi25ELi512ELi512EE7publishEiPKNS_3MsgE+0x62>
 8000948:	f811 5b01 	ldrb.w	r5, [r1], #1
 800094c:	3201      	adds	r2, #1
 800094e:	442b      	add	r3, r5
 8000950:	e7f8      	b.n	8000944 <_ZN3ros11NodeHandle_I13STM32HardwareLi25ELi25ELi512ELi512EE7publishEiPKNS_3MsgE+0x54>
 8000952:	f100 0508 	add.w	r5, r0, #8
 8000956:	4420      	add	r0, r4
 8000958:	43db      	mvns	r3, r3
 800095a:	f5b5 7f00 	cmp.w	r5, #512	; 0x200
 800095e:	f880 362b 	strb.w	r3, [r0, #1579]	; 0x62b
 8000962:	dc27      	bgt.n	80009b4 <_ZN3ros11NodeHandle_I13STM32HardwareLi25ELi25ELi512ELi512EE7publishEiPKNS_3MsgE+0xc4>
 8000964:	f8d4 040c 	ldr.w	r0, [r4, #1036]	; 0x40c
 8000968:	f5c0 7600 	rsb	r6, r0, #512	; 0x200
 800096c:	42ae      	cmp	r6, r5
 800096e:	bf28      	it	cs
 8000970:	462e      	movcs	r6, r5
 8000972:	1d27      	adds	r7, r4, #4
 8000974:	f204 6824 	addw	r8, r4, #1572	; 0x624
 8000978:	f500 7002 	add.w	r0, r0, #520	; 0x208
 800097c:	4632      	mov	r2, r6
 800097e:	4641      	mov	r1, r8
 8000980:	4438      	add	r0, r7
 8000982:	f002 f941 	bl	8002c08 <memcpy>
 8000986:	f8d4 340c 	ldr.w	r3, [r4, #1036]	; 0x40c
 800098a:	442b      	add	r3, r5
 800098c:	f3c3 0308 	ubfx	r3, r3, #0, #9
 8000990:	42b5      	cmp	r5, r6
 8000992:	f8c4 340c 	str.w	r3, [r4, #1036]	; 0x40c
 8000996:	d006      	beq.n	80009a6 <_ZN3ros11NodeHandle_I13STM32HardwareLi25ELi25ELi512ELi512EE7publishEiPKNS_3MsgE+0xb6>
 8000998:	1baa      	subs	r2, r5, r6
 800099a:	eb08 0106 	add.w	r1, r8, r6
 800099e:	f504 7003 	add.w	r0, r4, #524	; 0x20c
 80009a2:	f002 f931 	bl	8002c08 <memcpy>
 80009a6:	4638      	mov	r0, r7
 80009a8:	f7ff ff76 	bl	8000898 <_ZN13STM32Hardware5flushEv>
 80009ac:	4628      	mov	r0, r5
 80009ae:	b004      	add	sp, #16
 80009b0:	e8bd 81f0 	ldmia.w	sp!, {r4, r5, r6, r7, r8, pc}
 80009b4:	4b07      	ldr	r3, [pc, #28]	; (80009d4 <_ZN3ros11NodeHandle_I13STM32HardwareLi25ELi25ELi512ELi512EE7publishEiPKNS_3MsgE+0xe4>)
 80009b6:	9301      	str	r3, [sp, #4]
 80009b8:	2303      	movs	r3, #3
 80009ba:	f88d 3008 	strb.w	r3, [sp, #8]
 80009be:	4b06      	ldr	r3, [pc, #24]	; (80009d8 <_ZN3ros11NodeHandle_I13STM32HardwareLi25ELi25ELi512ELi512EE7publishEiPKNS_3MsgE+0xe8>)
 80009c0:	9303      	str	r3, [sp, #12]
 80009c2:	6823      	ldr	r3, [r4, #0]
 80009c4:	aa01      	add	r2, sp, #4
 80009c6:	681b      	ldr	r3, [r3, #0]
 80009c8:	2107      	movs	r1, #7
 80009ca:	4620      	mov	r0, r4
 80009cc:	4798      	blx	r3
 80009ce:	f04f 35ff 	mov.w	r5, #4294967295	; 0xffffffff
 80009d2:	e7eb      	b.n	80009ac <_ZN3ros11NodeHandle_I13STM32HardwareLi25ELi25ELi512ELi512EE7publishEiPKNS_3MsgE+0xbc>
 80009d4:	08002e60 	.word	0x08002e60
 80009d8:	08002f9e 	.word	0x08002f9e

080009dc <HAL_UART_TxCpltCallback>:
 80009dc:	b508      	push	{r3, lr}
 80009de:	4802      	ldr	r0, [pc, #8]	; (80009e8 <HAL_UART_TxCpltCallback+0xc>)
 80009e0:	f7ff ff5a 	bl	8000898 <_ZN13STM32Hardware5flushEv>
 80009e4:	bd08      	pop	{r3, pc}
 80009e6:	bf00      	nop
 80009e8:	20000094 	.word	0x20000094

080009ec <HAL_UART_RxCpltCallback>:
 80009ec:	4b03      	ldr	r3, [pc, #12]	; (80009fc <HAL_UART_RxCpltCallback+0x10>)
 80009ee:	f44f 7200 	mov.w	r2, #512	; 0x200
 80009f2:	f103 0108 	add.w	r1, r3, #8
 80009f6:	6858      	ldr	r0, [r3, #4]
 80009f8:	f001 bf48 	b.w	800288c <HAL_UART_Receive_DMA>
 80009fc:	20000090 	.word	0x20000090

08000a00 <_ZN3ros3Msg8varToArrIPhmEEvT_T0_>:
 8000a00:	0a0b      	lsrs	r3, r1, #8
 8000a02:	7001      	strb	r1, [r0, #0]
 8000a04:	7043      	strb	r3, [r0, #1]
 8000a06:	0c0b      	lsrs	r3, r1, #16
 8000a08:	0e09      	lsrs	r1, r1, #24
 8000a0a:	7083      	strb	r3, [r0, #2]
 8000a0c:	70c1      	strb	r1, [r0, #3]
 8000a0e:	4770      	bx	lr

08000a10 <_ZNK14rosserial_msgs20RequestParamResponse9serializeEPh>:
 8000a10:	6843      	ldr	r3, [r0, #4]
 8000a12:	e92d 41f0 	stmdb	sp!, {r4, r5, r6, r7, r8, lr}
 8000a16:	700b      	strb	r3, [r1, #0]
 8000a18:	6843      	ldr	r3, [r0, #4]
 8000a1a:	0a1b      	lsrs	r3, r3, #8
 8000a1c:	704b      	strb	r3, [r1, #1]
 8000a1e:	88c3      	ldrh	r3, [r0, #6]
 8000a20:	708b      	strb	r3, [r1, #2]
 8000a22:	79c3      	ldrb	r3, [r0, #7]
 8000a24:	70cb      	strb	r3, [r1, #3]
 8000a26:	460e      	mov	r6, r1
 8000a28:	1d0b      	adds	r3, r1, #4
 8000a2a:	4604      	mov	r4, r0
 8000a2c:	2100      	movs	r1, #0
 8000a2e:	6867      	ldr	r7, [r4, #4]
 8000a30:	1c8d      	adds	r5, r1, #2
 8000a32:	428f      	cmp	r7, r1
 8000a34:	469e      	mov	lr, r3
 8000a36:	f103 0c01 	add.w	ip, r3, #1
 8000a3a:	f103 0002 	add.w	r0, r3, #2
 8000a3e:	f103 0203 	add.w	r2, r3, #3
 8000a42:	ea4f 0585 	mov.w	r5, r5, lsl #2
 8000a46:	f103 0304 	add.w	r3, r3, #4
 8000a4a:	d910      	bls.n	8000a6e <_ZNK14rosserial_msgs20RequestParamResponse9serializeEPh+0x5e>
 8000a4c:	68e2      	ldr	r2, [r4, #12]
 8000a4e:	4415      	add	r5, r2
 8000a50:	3101      	adds	r1, #1
 8000a52:	f855 2c08 	ldr.w	r2, [r5, #-8]
 8000a56:	f803 2c04 	strb.w	r2, [r3, #-4]
 8000a5a:	0a10      	lsrs	r0, r2, #8
 8000a5c:	f803 0c03 	strb.w	r0, [r3, #-3]
 8000a60:	0c10      	lsrs	r0, r2, #16
 8000a62:	0e12      	lsrs	r2, r2, #24
 8000a64:	f803 0c02 	strb.w	r0, [r3, #-2]
 8000a68:	f803 2c01 	strb.w	r2, [r3, #-1]
 8000a6c:	e7df      	b.n	8000a2e <_ZNK14rosserial_msgs20RequestParamResponse9serializeEPh+0x1e>
 8000a6e:	6923      	ldr	r3, [r4, #16]
 8000a70:	f88e 3000 	strb.w	r3, [lr]
 8000a74:	6923      	ldr	r3, [r4, #16]
 8000a76:	0a1b      	lsrs	r3, r3, #8
 8000a78:	f88c 3000 	strb.w	r3, [ip]
 8000a7c:	8a63      	ldrh	r3, [r4, #18]
 8000a7e:	7003      	strb	r3, [r0, #0]
 8000a80:	7ce3      	ldrb	r3, [r4, #19]
 8000a82:	7013      	strb	r3, [r2, #0]
 8000a84:	2100      	movs	r1, #0
 8000a86:	1973      	adds	r3, r6, r5
 8000a88:	6927      	ldr	r7, [r4, #16]
 8000a8a:	428f      	cmp	r7, r1
 8000a8c:	469e      	mov	lr, r3
 8000a8e:	f103 0c01 	add.w	ip, r3, #1
 8000a92:	f103 0002 	add.w	r0, r3, #2
 8000a96:	f103 0203 	add.w	r2, r3, #3
 8000a9a:	f105 0504 	add.w	r5, r5, #4
 8000a9e:	f103 0304 	add.w	r3, r3, #4
 8000aa2:	d90f      	bls.n	8000ac4 <_ZNK14rosserial_msgs20RequestParamResponse9serializeEPh+0xb4>
 8000aa4:	69a2      	ldr	r2, [r4, #24]
 8000aa6:	f852 2021 	ldr.w	r2, [r2, r1, lsl #2]
 8000aaa:	f803 2c04 	strb.w	r2, [r3, #-4]
 8000aae:	0a10      	lsrs	r0, r2, #8
 8000ab0:	f803 0c03 	strb.w	r0, [r3, #-3]
 8000ab4:	0c10      	lsrs	r0, r2, #16
 8000ab6:	0e12      	lsrs	r2, r2, #24
 8000ab8:	f803 0c02 	strb.w	r0, [r3, #-2]
 8000abc:	f803 2c01 	strb.w	r2, [r3, #-1]
 8000ac0:	3101      	adds	r1, #1
 8000ac2:	e7e1      	b.n	8000a88 <_ZNK14rosserial_msgs20RequestParamResponse9serializeEPh+0x78>
 8000ac4:	69e3      	ldr	r3, [r4, #28]
 8000ac6:	f88e 3000 	strb.w	r3, [lr]
 8000aca:	69e3      	ldr	r3, [r4, #28]
 8000acc:	0a1b      	lsrs	r3, r3, #8
 8000ace:	f88c 3000 	strb.w	r3, [ip]
 8000ad2:	8be3      	ldrh	r3, [r4, #30]
 8000ad4:	7003      	strb	r3, [r0, #0]
 8000ad6:	7fe3      	ldrb	r3, [r4, #31]
 8000ad8:	7013      	strb	r3, [r2, #0]
 8000ada:	2700      	movs	r7, #0
 8000adc:	69e3      	ldr	r3, [r4, #28]
 8000ade:	42bb      	cmp	r3, r7
 8000ae0:	d914      	bls.n	8000b0c <_ZNK14rosserial_msgs20RequestParamResponse9serializeEPh+0xfc>
 8000ae2:	6a63      	ldr	r3, [r4, #36]	; 0x24
 8000ae4:	f853 0027 	ldr.w	r0, [r3, r7, lsl #2]
 8000ae8:	f7ff fb74 	bl	80001d4 <strlen>
 8000aec:	4680      	mov	r8, r0
 8000aee:	4601      	mov	r1, r0
 8000af0:	1970      	adds	r0, r6, r5
 8000af2:	f7ff ff85 	bl	8000a00 <_ZN3ros3Msg8varToArrIPhmEEvT_T0_>
 8000af6:	6a63      	ldr	r3, [r4, #36]	; 0x24
 8000af8:	3504      	adds	r5, #4
 8000afa:	f853 1027 	ldr.w	r1, [r3, r7, lsl #2]
 8000afe:	1970      	adds	r0, r6, r5
 8000b00:	4642      	mov	r2, r8
 8000b02:	f002 f881 	bl	8002c08 <memcpy>
 8000b06:	4445      	add	r5, r8
 8000b08:	3701      	adds	r7, #1
 8000b0a:	e7e7      	b.n	8000adc <_ZNK14rosserial_msgs20RequestParamResponse9serializeEPh+0xcc>
 8000b0c:	4628      	mov	r0, r5
 8000b0e:	e8bd 81f0 	ldmia.w	sp!, {r4, r5, r6, r7, r8, pc}

08000b12 <_ZNK14rosserial_msgs3Log9serializeEPh>:
 8000b12:	b5f8      	push	{r3, r4, r5, r6, r7, lr}
 8000b14:	460e      	mov	r6, r1
 8000b16:	7903      	ldrb	r3, [r0, #4]
 8000b18:	f806 3b01 	strb.w	r3, [r6], #1
 8000b1c:	4605      	mov	r5, r0
 8000b1e:	6880      	ldr	r0, [r0, #8]
 8000b20:	460f      	mov	r7, r1
 8000b22:	f7ff fb57 	bl	80001d4 <strlen>
 8000b26:	4604      	mov	r4, r0
 8000b28:	4601      	mov	r1, r0
 8000b2a:	4630      	mov	r0, r6
 8000b2c:	f7ff ff68 	bl	8000a00 <_ZN3ros3Msg8varToArrIPhmEEvT_T0_>
 8000b30:	4622      	mov	r2, r4
 8000b32:	68a9      	ldr	r1, [r5, #8]
 8000b34:	1d78      	adds	r0, r7, #5
 8000b36:	f002 f867 	bl	8002c08 <memcpy>
 8000b3a:	1d60      	adds	r0, r4, #5
 8000b3c:	bdf8      	pop	{r3, r4, r5, r6, r7, pc}

08000b3e <_ZNK14rosserial_msgs9TopicInfo9serializeEPh>:
 8000b3e:	8883      	ldrh	r3, [r0, #4]
 8000b40:	e92d 41f0 	stmdb	sp!, {r4, r5, r6, r7, r8, lr}
 8000b44:	700b      	strb	r3, [r1, #0]
 8000b46:	8883      	ldrh	r3, [r0, #4]
 8000b48:	0a1b      	lsrs	r3, r3, #8
 8000b4a:	704b      	strb	r3, [r1, #1]
 8000b4c:	4606      	mov	r6, r0
 8000b4e:	6880      	ldr	r0, [r0, #8]
 8000b50:	460d      	mov	r5, r1
 8000b52:	f7ff fb3f 	bl	80001d4 <strlen>
 8000b56:	4604      	mov	r4, r0
 8000b58:	4601      	mov	r1, r0
 8000b5a:	1ca8      	adds	r0, r5, #2
 8000b5c:	f7ff ff50 	bl	8000a00 <_ZN3ros3Msg8varToArrIPhmEEvT_T0_>
 8000b60:	4622      	mov	r2, r4
 8000b62:	68b1      	ldr	r1, [r6, #8]
 8000b64:	1da8      	adds	r0, r5, #6
 8000b66:	f002 f84f 	bl	8002c08 <memcpy>
 8000b6a:	68f0      	ldr	r0, [r6, #12]
 8000b6c:	f7ff fb32 	bl	80001d4 <strlen>
 8000b70:	f104 0806 	add.w	r8, r4, #6
 8000b74:	4607      	mov	r7, r0
 8000b76:	4601      	mov	r1, r0
 8000b78:	340a      	adds	r4, #10
 8000b7a:	eb05 0008 	add.w	r0, r5, r8
 8000b7e:	f7ff ff3f 	bl	8000a00 <_ZN3ros3Msg8varToArrIPhmEEvT_T0_>
 8000b82:	463a      	mov	r2, r7
 8000b84:	68f1      	ldr	r1, [r6, #12]
 8000b86:	1928      	adds	r0, r5, r4
 8000b88:	f002 f83e 	bl	8002c08 <memcpy>
 8000b8c:	6930      	ldr	r0, [r6, #16]
 8000b8e:	f7ff fb21 	bl	80001d4 <strlen>
 8000b92:	443c      	add	r4, r7
 8000b94:	4601      	mov	r1, r0
 8000b96:	4607      	mov	r7, r0
 8000b98:	1928      	adds	r0, r5, r4
 8000b9a:	3404      	adds	r4, #4
 8000b9c:	f7ff ff30 	bl	8000a00 <_ZN3ros3Msg8varToArrIPhmEEvT_T0_>
 8000ba0:	463a      	mov	r2, r7
 8000ba2:	1928      	adds	r0, r5, r4
 8000ba4:	6931      	ldr	r1, [r6, #16]
 8000ba6:	f002 f82f 	bl	8002c08 <memcpy>
 8000baa:	19e0      	adds	r0, r4, r7
 8000bac:	6973      	ldr	r3, [r6, #20]
 8000bae:	542b      	strb	r3, [r5, r0]
 8000bb0:	4405      	add	r5, r0
 8000bb2:	0a1a      	lsrs	r2, r3, #8
 8000bb4:	706a      	strb	r2, [r5, #1]
 8000bb6:	0c1a      	lsrs	r2, r3, #16
 8000bb8:	0e1b      	lsrs	r3, r3, #24
 8000bba:	70aa      	strb	r2, [r5, #2]
 8000bbc:	70eb      	strb	r3, [r5, #3]
 8000bbe:	3004      	adds	r0, #4
 8000bc0:	e8bd 81f0 	ldmia.w	sp!, {r4, r5, r6, r7, r8, pc}

08000bc4 <_ZN3ros3Msg8arrToVarImPhEEvRT_T0_>:
 8000bc4:	b510      	push	{r4, lr}
 8000bc6:	2300      	movs	r3, #0
 8000bc8:	6003      	str	r3, [r0, #0]
 8000bca:	3901      	subs	r1, #1
 8000bcc:	f811 2f01 	ldrb.w	r2, [r1, #1]!
 8000bd0:	fa02 f403 	lsl.w	r4, r2, r3
 8000bd4:	6802      	ldr	r2, [r0, #0]
 8000bd6:	3308      	adds	r3, #8
 8000bd8:	4322      	orrs	r2, r4
 8000bda:	2b20      	cmp	r3, #32
 8000bdc:	6002      	str	r2, [r0, #0]
 8000bde:	d1f5      	bne.n	8000bcc <_ZN3ros3Msg8arrToVarImPhEEvRT_T0_+0x8>
 8000be0:	bd10      	pop	{r4, pc}

08000be2 <_ZN14rosserial_msgs3Log11deserializeEPh>:
 8000be2:	b537      	push	{r0, r1, r2, r4, r5, lr}
 8000be4:	460c      	mov	r4, r1
 8000be6:	f811 3b01 	ldrb.w	r3, [r1], #1
 8000bea:	7103      	strb	r3, [r0, #4]
 8000bec:	4605      	mov	r5, r0
 8000bee:	a801      	add	r0, sp, #4
 8000bf0:	f7ff ffe8 	bl	8000bc4 <_ZN3ros3Msg8arrToVarImPhEEvRT_T0_>
 8000bf4:	9b01      	ldr	r3, [sp, #4]
 8000bf6:	1d62      	adds	r2, r4, #5
 8000bf8:	1d58      	adds	r0, r3, #5
 8000bfa:	1b11      	subs	r1, r2, r4
 8000bfc:	4288      	cmp	r0, r1
 8000bfe:	d904      	bls.n	8000c0a <_ZN14rosserial_msgs3Log11deserializeEPh+0x28>
 8000c00:	f812 1b01 	ldrb.w	r1, [r2], #1
 8000c04:	f802 1c02 	strb.w	r1, [r2, #-2]
 8000c08:	e7f7      	b.n	8000bfa <_ZN14rosserial_msgs3Log11deserializeEPh+0x18>
 8000c0a:	4423      	add	r3, r4
 8000c0c:	2200      	movs	r2, #0
 8000c0e:	3404      	adds	r4, #4
 8000c10:	711a      	strb	r2, [r3, #4]
 8000c12:	60ac      	str	r4, [r5, #8]
 8000c14:	b003      	add	sp, #12
 8000c16:	bd30      	pop	{r4, r5, pc}

08000c18 <_ZN14rosserial_msgs9TopicInfo11deserializeEPh>:
 8000c18:	b5f0      	push	{r4, r5, r6, r7, lr}
 8000c1a:	780b      	ldrb	r3, [r1, #0]
 8000c1c:	8083      	strh	r3, [r0, #4]
 8000c1e:	784a      	ldrb	r2, [r1, #1]
 8000c20:	b085      	sub	sp, #20
 8000c22:	ea43 2302 	orr.w	r3, r3, r2, lsl #8
 8000c26:	8083      	strh	r3, [r0, #4]
 8000c28:	460c      	mov	r4, r1
 8000c2a:	4606      	mov	r6, r0
 8000c2c:	3102      	adds	r1, #2
 8000c2e:	a801      	add	r0, sp, #4
 8000c30:	f7ff ffc8 	bl	8000bc4 <_ZN3ros3Msg8arrToVarImPhEEvRT_T0_>
 8000c34:	9f01      	ldr	r7, [sp, #4]
 8000c36:	1da3      	adds	r3, r4, #6
 8000c38:	1dbd      	adds	r5, r7, #6
 8000c3a:	1b1a      	subs	r2, r3, r4
 8000c3c:	4295      	cmp	r5, r2
 8000c3e:	d904      	bls.n	8000c4a <_ZN14rosserial_msgs9TopicInfo11deserializeEPh+0x32>
 8000c40:	f813 2b01 	ldrb.w	r2, [r3], #1
 8000c44:	f803 2c02 	strb.w	r2, [r3, #-2]
 8000c48:	e7f7      	b.n	8000c3a <_ZN14rosserial_msgs9TopicInfo11deserializeEPh+0x22>
 8000c4a:	19e3      	adds	r3, r4, r7
 8000c4c:	2200      	movs	r2, #0
 8000c4e:	715a      	strb	r2, [r3, #5]
 8000c50:	1d63      	adds	r3, r4, #5
 8000c52:	60b3      	str	r3, [r6, #8]
 8000c54:	1961      	adds	r1, r4, r5
 8000c56:	a802      	add	r0, sp, #8
 8000c58:	f7ff ffb4 	bl	8000bc4 <_ZN3ros3Msg8arrToVarImPhEEvRT_T0_>
 8000c5c:	1d2b      	adds	r3, r5, #4
 8000c5e:	9d02      	ldr	r5, [sp, #8]
 8000c60:	f107 020a 	add.w	r2, r7, #10
 8000c64:	441d      	add	r5, r3
 8000c66:	4422      	add	r2, r4
 8000c68:	1b11      	subs	r1, r2, r4
 8000c6a:	428d      	cmp	r5, r1
 8000c6c:	d904      	bls.n	8000c78 <_ZN14rosserial_msgs9TopicInfo11deserializeEPh+0x60>
 8000c6e:	f812 1b01 	ldrb.w	r1, [r2], #1
 8000c72:	f802 1c02 	strb.w	r1, [r2, #-2]
 8000c76:	e7f7      	b.n	8000c68 <_ZN14rosserial_msgs9TopicInfo11deserializeEPh+0x50>
 8000c78:	1961      	adds	r1, r4, r5
 8000c7a:	3b01      	subs	r3, #1
 8000c7c:	4423      	add	r3, r4
 8000c7e:	2200      	movs	r2, #0
 8000c80:	f801 2c01 	strb.w	r2, [r1, #-1]
 8000c84:	a803      	add	r0, sp, #12
 8000c86:	60f3      	str	r3, [r6, #12]
 8000c88:	f7ff ff9c 	bl	8000bc4 <_ZN3ros3Msg8arrToVarImPhEEvRT_T0_>
 8000c8c:	9803      	ldr	r0, [sp, #12]
 8000c8e:	3504      	adds	r5, #4
 8000c90:	4428      	add	r0, r5
 8000c92:	1963      	adds	r3, r4, r5
 8000c94:	1b1a      	subs	r2, r3, r4
 8000c96:	4290      	cmp	r0, r2
 8000c98:	d904      	bls.n	8000ca4 <_ZN14rosserial_msgs9TopicInfo11deserializeEPh+0x8c>
 8000c9a:	f813 2b01 	ldrb.w	r2, [r3], #1
 8000c9e:	f803 2c02 	strb.w	r2, [r3, #-2]
 8000ca2:	e7f7      	b.n	8000c94 <_ZN14rosserial_msgs9TopicInfo11deserializeEPh+0x7c>
 8000ca4:	1822      	adds	r2, r4, r0
 8000ca6:	3d01      	subs	r5, #1
 8000ca8:	2300      	movs	r3, #0
 8000caa:	4425      	add	r5, r4
 8000cac:	f802 3c01 	strb.w	r3, [r2, #-1]
 8000cb0:	6135      	str	r5, [r6, #16]
 8000cb2:	7893      	ldrb	r3, [r2, #2]
 8000cb4:	7851      	ldrb	r1, [r2, #1]
 8000cb6:	78d2      	ldrb	r2, [r2, #3]
 8000cb8:	041b      	lsls	r3, r3, #16
 8000cba:	ea43 2301 	orr.w	r3, r3, r1, lsl #8
 8000cbe:	5c21      	ldrb	r1, [r4, r0]
 8000cc0:	430b      	orrs	r3, r1
 8000cc2:	ea43 6302 	orr.w	r3, r3, r2, lsl #24
 8000cc6:	3004      	adds	r0, #4
 8000cc8:	6173      	str	r3, [r6, #20]
 8000cca:	b005      	add	sp, #20
 8000ccc:	bdf0      	pop	{r4, r5, r6, r7, pc}

08000cce <_ZN14rosserial_msgs20RequestParamResponse11deserializeEPh>:
 8000cce:	e92d 41f3 	stmdb	sp!, {r0, r1, r4, r5, r6, r7, r8, lr}
 8000cd2:	6843      	ldr	r3, [r0, #4]
 8000cd4:	680d      	ldr	r5, [r1, #0]
 8000cd6:	42ab      	cmp	r3, r5
 8000cd8:	4604      	mov	r4, r0
 8000cda:	460e      	mov	r6, r1
 8000cdc:	d204      	bcs.n	8000ce8 <_ZN14rosserial_msgs20RequestParamResponse11deserializeEPh+0x1a>
 8000cde:	00a9      	lsls	r1, r5, #2
 8000ce0:	68c0      	ldr	r0, [r0, #12]
 8000ce2:	f001 ffa5 	bl	8002c30 <realloc>
 8000ce6:	60e0      	str	r0, [r4, #12]
 8000ce8:	6065      	str	r5, [r4, #4]
 8000cea:	4632      	mov	r2, r6
 8000cec:	2100      	movs	r1, #0
 8000cee:	7995      	ldrb	r5, [r2, #6]
 8000cf0:	7953      	ldrb	r3, [r2, #5]
 8000cf2:	042d      	lsls	r5, r5, #16
 8000cf4:	ea45 2503 	orr.w	r5, r5, r3, lsl #8
 8000cf8:	7913      	ldrb	r3, [r2, #4]
 8000cfa:	431d      	orrs	r5, r3
 8000cfc:	79d3      	ldrb	r3, [r2, #7]
 8000cfe:	ea45 6503 	orr.w	r5, r5, r3, lsl #24
 8000d02:	1c8b      	adds	r3, r1, #2
 8000d04:	ea4f 0883 	mov.w	r8, r3, lsl #2
 8000d08:	6863      	ldr	r3, [r4, #4]
 8000d0a:	428b      	cmp	r3, r1
 8000d0c:	4647      	mov	r7, r8
 8000d0e:	f102 0204 	add.w	r2, r2, #4
 8000d12:	d906      	bls.n	8000d22 <_ZN14rosserial_msgs20RequestParamResponse11deserializeEPh+0x54>
 8000d14:	68e3      	ldr	r3, [r4, #12]
 8000d16:	60a5      	str	r5, [r4, #8]
 8000d18:	4443      	add	r3, r8
 8000d1a:	3101      	adds	r1, #1
 8000d1c:	f843 5c08 	str.w	r5, [r3, #-8]
 8000d20:	e7e5      	b.n	8000cee <_ZN14rosserial_msgs20RequestParamResponse11deserializeEPh+0x20>
 8000d22:	6923      	ldr	r3, [r4, #16]
 8000d24:	42ab      	cmp	r3, r5
 8000d26:	d204      	bcs.n	8000d32 <_ZN14rosserial_msgs20RequestParamResponse11deserializeEPh+0x64>
 8000d28:	00a9      	lsls	r1, r5, #2
 8000d2a:	69a0      	ldr	r0, [r4, #24]
 8000d2c:	f001 ff80 	bl	8002c30 <realloc>
 8000d30:	61a0      	str	r0, [r4, #24]
 8000d32:	6125      	str	r5, [r4, #16]
 8000d34:	eb06 0308 	add.w	r3, r6, r8
 8000d38:	2200      	movs	r2, #0
 8000d3a:	789d      	ldrb	r5, [r3, #2]
 8000d3c:	7859      	ldrb	r1, [r3, #1]
 8000d3e:	042d      	lsls	r5, r5, #16
 8000d40:	ea45 2501 	orr.w	r5, r5, r1, lsl #8
 8000d44:	7819      	ldrb	r1, [r3, #0]
 8000d46:	430d      	orrs	r5, r1
 8000d48:	78d9      	ldrb	r1, [r3, #3]
 8000d4a:	ea45 6501 	orr.w	r5, r5, r1, lsl #24
 8000d4e:	6921      	ldr	r1, [r4, #16]
 8000d50:	4291      	cmp	r1, r2
 8000d52:	f107 0704 	add.w	r7, r7, #4
 8000d56:	f103 0304 	add.w	r3, r3, #4
 8000d5a:	d905      	bls.n	8000d68 <_ZN14rosserial_msgs20RequestParamResponse11deserializeEPh+0x9a>
 8000d5c:	69a1      	ldr	r1, [r4, #24]
 8000d5e:	6165      	str	r5, [r4, #20]
 8000d60:	f841 5022 	str.w	r5, [r1, r2, lsl #2]
 8000d64:	3201      	adds	r2, #1
 8000d66:	e7e8      	b.n	8000d3a <_ZN14rosserial_msgs20RequestParamResponse11deserializeEPh+0x6c>
 8000d68:	69e3      	ldr	r3, [r4, #28]
 8000d6a:	42ab      	cmp	r3, r5
 8000d6c:	d204      	bcs.n	8000d78 <_ZN14rosserial_msgs20RequestParamResponse11deserializeEPh+0xaa>
 8000d6e:	00a9      	lsls	r1, r5, #2
 8000d70:	6a60      	ldr	r0, [r4, #36]	; 0x24
 8000d72:	f001 ff5d 	bl	8002c30 <realloc>
 8000d76:	6260      	str	r0, [r4, #36]	; 0x24
 8000d78:	61e5      	str	r5, [r4, #28]
 8000d7a:	2500      	movs	r5, #0
 8000d7c:	46a8      	mov	r8, r5
 8000d7e:	69e3      	ldr	r3, [r4, #28]
 8000d80:	42ab      	cmp	r3, r5
 8000d82:	d91a      	bls.n	8000dba <_ZN14rosserial_msgs20RequestParamResponse11deserializeEPh+0xec>
 8000d84:	19f1      	adds	r1, r6, r7
 8000d86:	a801      	add	r0, sp, #4
 8000d88:	f7ff ff1c 	bl	8000bc4 <_ZN3ros3Msg8arrToVarImPhEEvRT_T0_>
 8000d8c:	1d3b      	adds	r3, r7, #4
 8000d8e:	9f01      	ldr	r7, [sp, #4]
 8000d90:	18f2      	adds	r2, r6, r3
 8000d92:	441f      	add	r7, r3
 8000d94:	1b91      	subs	r1, r2, r6
 8000d96:	42b9      	cmp	r1, r7
 8000d98:	d204      	bcs.n	8000da4 <_ZN14rosserial_msgs20RequestParamResponse11deserializeEPh+0xd6>
 8000d9a:	f812 1b01 	ldrb.w	r1, [r2], #1
 8000d9e:	f802 1c02 	strb.w	r1, [r2, #-2]
 8000da2:	e7f7      	b.n	8000d94 <_ZN14rosserial_msgs20RequestParamResponse11deserializeEPh+0xc6>
 8000da4:	19f2      	adds	r2, r6, r7
 8000da6:	f802 8c01 	strb.w	r8, [r2, #-1]
 8000daa:	1e5a      	subs	r2, r3, #1
 8000dac:	6a63      	ldr	r3, [r4, #36]	; 0x24
 8000dae:	4432      	add	r2, r6
 8000db0:	6222      	str	r2, [r4, #32]
 8000db2:	f843 2025 	str.w	r2, [r3, r5, lsl #2]
 8000db6:	3501      	adds	r5, #1
 8000db8:	e7e1      	b.n	8000d7e <_ZN14rosserial_msgs20RequestParamResponse11deserializeEPh+0xb0>
 8000dba:	4638      	mov	r0, r7
 8000dbc:	b002      	add	sp, #8
 8000dbe:	e8bd 81f0 	ldmia.w	sp!, {r4, r5, r6, r7, r8, pc}

08000dc2 <_ZN3ros11NodeHandle_I13STM32HardwareLi25ELi25ELi512ELi512EE9subscribeINS_10SubscriberIN8std_msgs6UInt16EvEEEEbRT_>:
 8000dc2:	b510      	push	{r4, lr}
 8000dc4:	f600 0288 	addw	r2, r0, #2184	; 0x888
 8000dc8:	2300      	movs	r3, #0
 8000dca:	f852 4b04 	ldr.w	r4, [r2], #4
 8000dce:	b93c      	cbnz	r4, 8000de0 <_ZN3ros11NodeHandle_I13STM32HardwareLi25ELi25ELi512ELi512EE9subscribeINS_10SubscriberIN8std_msgs6UInt16EvEEEEbRT_+0x1e>
 8000dd0:	f203 2222 	addw	r2, r3, #546	; 0x222
 8000dd4:	3364      	adds	r3, #100	; 0x64
 8000dd6:	f840 1022 	str.w	r1, [r0, r2, lsl #2]
 8000dda:	604b      	str	r3, [r1, #4]
 8000ddc:	2001      	movs	r0, #1
 8000dde:	bd10      	pop	{r4, pc}
 8000de0:	3301      	adds	r3, #1
 8000de2:	2b19      	cmp	r3, #25
 8000de4:	d1f1      	bne.n	8000dca <_ZN3ros11NodeHandle_I13STM32HardwareLi25ELi25ELi512ELi512EE9subscribeINS_10SubscriberIN8std_msgs6UInt16EvEEEEbRT_+0x8>
 8000de6:	2000      	movs	r0, #0
 8000de8:	e7f9      	b.n	8000dde <_ZN3ros11NodeHandle_I13STM32HardwareLi25ELi25ELi512ELi512EE9subscribeINS_10SubscriberIN8std_msgs6UInt16EvEEEEbRT_+0x1c>
	...

08000dec <setup>:
 8000dec:	b510      	push	{r4, lr}
 8000dee:	4c1a      	ldr	r4, [pc, #104]	; (8000e58 <setup+0x6c>)
 8000df0:	2100      	movs	r1, #0
 8000df2:	4620      	mov	r0, r4
 8000df4:	f001 fc02 	bl	80025fc <HAL_TIM_PWM_Start>
 8000df8:	2104      	movs	r1, #4
 8000dfa:	4620      	mov	r0, r4
 8000dfc:	f001 fbfe 	bl	80025fc <HAL_TIM_PWM_Start>
 8000e00:	2108      	movs	r1, #8
 8000e02:	4620      	mov	r0, r4
 8000e04:	f001 fbfa 	bl	80025fc <HAL_TIM_PWM_Start>
 8000e08:	6823      	ldr	r3, [r4, #0]
 8000e0a:	4c14      	ldr	r4, [pc, #80]	; (8000e5c <setup+0x70>)
 8000e0c:	f640 12c4 	movw	r2, #2500	; 0x9c4
 8000e10:	635a      	str	r2, [r3, #52]	; 0x34
 8000e12:	f241 3288 	movw	r2, #5000	; 0x1388
 8000e16:	639a      	str	r2, [r3, #56]	; 0x38
 8000e18:	f641 524c 	movw	r2, #7500	; 0x1d4c
 8000e1c:	63da      	str	r2, [r3, #60]	; 0x3c
 8000e1e:	f104 0108 	add.w	r1, r4, #8
 8000e22:	f44f 7200 	mov.w	r2, #512	; 0x200
 8000e26:	6860      	ldr	r0, [r4, #4]
 8000e28:	f001 fd30 	bl	800288c <HAL_UART_Receive_DMA>
 8000e2c:	2300      	movs	r3, #0
 8000e2e:	490c      	ldr	r1, [pc, #48]	; (8000e60 <setup+0x74>)
 8000e30:	f8c4 38ec 	str.w	r3, [r4, #2284]	; 0x8ec
 8000e34:	4620      	mov	r0, r4
 8000e36:	f8c4 38f0 	str.w	r3, [r4, #2288]	; 0x8f0
 8000e3a:	f8c4 38f8 	str.w	r3, [r4, #2296]	; 0x8f8
 8000e3e:	f8c4 38f4 	str.w	r3, [r4, #2292]	; 0x8f4
 8000e42:	f7ff ffbe 	bl	8000dc2 <_ZN3ros11NodeHandle_I13STM32HardwareLi25ELi25ELi512ELi512EE9subscribeINS_10SubscriberIN8std_msgs6UInt16EvEEEEbRT_>
 8000e46:	4907      	ldr	r1, [pc, #28]	; (8000e64 <setup+0x78>)
 8000e48:	4620      	mov	r0, r4
 8000e4a:	f7ff ffba 	bl	8000dc2 <_ZN3ros11NodeHandle_I13STM32HardwareLi25ELi25ELi512ELi512EE9subscribeINS_10SubscriberIN8std_msgs6UInt16EvEEEEbRT_>
 8000e4e:	4906      	ldr	r1, [pc, #24]	; (8000e68 <setup+0x7c>)
 8000e50:	4620      	mov	r0, r4
 8000e52:	f7ff ffb6 	bl	8000dc2 <_ZN3ros11NodeHandle_I13STM32HardwareLi25ELi25ELi512ELi512EE9subscribeINS_10SubscriberIN8std_msgs6UInt16EvEEEEbRT_>
 8000e56:	bd10      	pop	{r4, pc}
 8000e58:	20000aec 	.word	0x20000aec
 8000e5c:	20000090 	.word	0x20000090
 8000e60:	200009cc 	.word	0x200009cc
 8000e64:	200009e8 	.word	0x200009e8
 8000e68:	20000a04 	.word	0x20000a04

08000e6c <_ZN3ros11NodeHandle_I13STM32HardwareLi25ELi25ELi512ELi512EE15requestSyncTimeEv>:
 8000e6c:	b51f      	push	{r0, r1, r2, r3, r4, lr}
 8000e6e:	4b08      	ldr	r3, [pc, #32]	; (8000e90 <_ZN3ros11NodeHandle_I13STM32HardwareLi25ELi25ELi512ELi512EE15requestSyncTimeEv+0x24>)
 8000e70:	9301      	str	r3, [sp, #4]
 8000e72:	2300      	movs	r3, #0
 8000e74:	e9cd 3302 	strd	r3, r3, [sp, #8]
 8000e78:	6803      	ldr	r3, [r0, #0]
 8000e7a:	aa01      	add	r2, sp, #4
 8000e7c:	681b      	ldr	r3, [r3, #0]
 8000e7e:	210a      	movs	r1, #10
 8000e80:	4604      	mov	r4, r0
 8000e82:	4798      	blx	r3
 8000e84:	f000 fbe2 	bl	800164c <HAL_GetTick>
 8000e88:	f8c4 0414 	str.w	r0, [r4, #1044]	; 0x414
 8000e8c:	b004      	add	sp, #16
 8000e8e:	bd10      	pop	{r4, pc}
 8000e90:	08002e30 	.word	0x08002e30

08000e94 <_ZN3ros11NodeHandle_I13STM32HardwareLi25ELi25ELi512ELi512EE15negotiateTopicsEv>:
 8000e94:	e92d 41f0 	stmdb	sp!, {r4, r5, r6, r7, r8, lr}
 8000e98:	b086      	sub	sp, #24
 8000e9a:	4b2d      	ldr	r3, [pc, #180]	; (8000f50 <_ZN3ros11NodeHandle_I13STM32HardwareLi25ELi25ELi512ELi512EE15negotiateTopicsEv+0xbc>)
 8000e9c:	9300      	str	r3, [sp, #0]
 8000e9e:	4b2d      	ldr	r3, [pc, #180]	; (8000f54 <_ZN3ros11NodeHandle_I13STM32HardwareLi25ELi25ELi512ELi512EE15negotiateTopicsEv+0xc0>)
 8000ea0:	2200      	movs	r2, #0
 8000ea2:	e9cd 3302 	strd	r3, r3, [sp, #8]
 8000ea6:	e9cd 3204 	strd	r3, r2, [sp, #16]
 8000eaa:	4605      	mov	r5, r0
 8000eac:	f8ad 2004 	strh.w	r2, [sp, #4]
 8000eb0:	f600 0424 	addw	r4, r0, #2084	; 0x824
 8000eb4:	f600 0688 	addw	r6, r0, #2184	; 0x888
 8000eb8:	f44f 7700 	mov.w	r7, #512	; 0x200
 8000ebc:	f854 3b04 	ldr.w	r3, [r4], #4
 8000ec0:	b1cb      	cbz	r3, 8000ef6 <_ZN3ros11NodeHandle_I13STM32HardwareLi25ELi25ELi512ELi512EE15negotiateTopicsEv+0x62>
 8000ec2:	6858      	ldr	r0, [r3, #4]
 8000ec4:	689a      	ldr	r2, [r3, #8]
 8000ec6:	f8ad 2004 	strh.w	r2, [sp, #4]
 8000eca:	681a      	ldr	r2, [r3, #0]
 8000ecc:	6803      	ldr	r3, [r0, #0]
 8000ece:	9202      	str	r2, [sp, #8]
 8000ed0:	689b      	ldr	r3, [r3, #8]
 8000ed2:	4798      	blx	r3
 8000ed4:	f854 3c04 	ldr.w	r3, [r4, #-4]
 8000ed8:	9003      	str	r0, [sp, #12]
 8000eda:	6858      	ldr	r0, [r3, #4]
 8000edc:	6803      	ldr	r3, [r0, #0]
 8000ede:	68db      	ldr	r3, [r3, #12]
 8000ee0:	4798      	blx	r3
 8000ee2:	f854 1c04 	ldr.w	r1, [r4, #-4]
 8000ee6:	682b      	ldr	r3, [r5, #0]
 8000ee8:	6909      	ldr	r1, [r1, #16]
 8000eea:	681b      	ldr	r3, [r3, #0]
 8000eec:	e9cd 0704 	strd	r0, r7, [sp, #16]
 8000ef0:	466a      	mov	r2, sp
 8000ef2:	4628      	mov	r0, r5
 8000ef4:	4798      	blx	r3
 8000ef6:	42b4      	cmp	r4, r6
 8000ef8:	d1e0      	bne.n	8000ebc <_ZN3ros11NodeHandle_I13STM32HardwareLi25ELi25ELi512ELi512EE15negotiateTopicsEv+0x28>
 8000efa:	f605 06ec 	addw	r6, r5, #2284	; 0x8ec
 8000efe:	f44f 7700 	mov.w	r7, #512	; 0x200
 8000f02:	f854 0b04 	ldr.w	r0, [r4], #4
 8000f06:	b1d8      	cbz	r0, 8000f40 <_ZN3ros11NodeHandle_I13STM32HardwareLi25ELi25ELi512ELi512EE15negotiateTopicsEv+0xac>
 8000f08:	6843      	ldr	r3, [r0, #4]
 8000f0a:	f8ad 3004 	strh.w	r3, [sp, #4]
 8000f0e:	6883      	ldr	r3, [r0, #8]
 8000f10:	9302      	str	r3, [sp, #8]
 8000f12:	6803      	ldr	r3, [r0, #0]
 8000f14:	689b      	ldr	r3, [r3, #8]
 8000f16:	4798      	blx	r3
 8000f18:	9003      	str	r0, [sp, #12]
 8000f1a:	f854 0c04 	ldr.w	r0, [r4, #-4]
 8000f1e:	6803      	ldr	r3, [r0, #0]
 8000f20:	68db      	ldr	r3, [r3, #12]
 8000f22:	4798      	blx	r3
 8000f24:	682b      	ldr	r3, [r5, #0]
 8000f26:	e9cd 0704 	strd	r0, r7, [sp, #16]
 8000f2a:	f854 0c04 	ldr.w	r0, [r4, #-4]
 8000f2e:	f8d3 8000 	ldr.w	r8, [r3]
 8000f32:	6803      	ldr	r3, [r0, #0]
 8000f34:	685b      	ldr	r3, [r3, #4]
 8000f36:	4798      	blx	r3
 8000f38:	466a      	mov	r2, sp
 8000f3a:	4601      	mov	r1, r0
 8000f3c:	4628      	mov	r0, r5
 8000f3e:	47c0      	blx	r8
 8000f40:	42a6      	cmp	r6, r4
 8000f42:	d1de      	bne.n	8000f02 <_ZN3ros11NodeHandle_I13STM32HardwareLi25ELi25ELi512ELi512EE15negotiateTopicsEv+0x6e>
 8000f44:	2301      	movs	r3, #1
 8000f46:	f885 3900 	strb.w	r3, [r5, #2304]	; 0x900
 8000f4a:	b006      	add	sp, #24
 8000f4c:	e8bd 81f0 	ldmia.w	sp!, {r4, r5, r6, r7, r8, pc}
 8000f50:	08002e48 	.word	0x08002e48
 8000f54:	08002fd6 	.word	0x08002fd6

08000f58 <_ZN3ros11NodeHandle_I13STM32HardwareLi25ELi25ELi512ELi512EE8syncTimeEPh>:
 8000f58:	b57f      	push	{r0, r1, r2, r3, r4, r5, r6, lr}
 8000f5a:	4b1e      	ldr	r3, [pc, #120]	; (8000fd4 <_ZN3ros11NodeHandle_I13STM32HardwareLi25ELi25ELi512ELi512EE8syncTimeEPh+0x7c>)
 8000f5c:	9301      	str	r3, [sp, #4]
 8000f5e:	4604      	mov	r4, r0
 8000f60:	2300      	movs	r3, #0
 8000f62:	e9cd 3302 	strd	r3, r3, [sp, #8]
 8000f66:	460d      	mov	r5, r1
 8000f68:	f000 fb70 	bl	800164c <HAL_GetTick>
 8000f6c:	f8d4 2414 	ldr.w	r2, [r4, #1044]	; 0x414
 8000f70:	4629      	mov	r1, r5
 8000f72:	1a86      	subs	r6, r0, r2
 8000f74:	a801      	add	r0, sp, #4
 8000f76:	f7ff fc06 	bl	8000786 <_ZN8std_msgs4Time11deserializeEPh>
 8000f7a:	9b02      	ldr	r3, [sp, #8]
 8000f7c:	f44f 757a 	mov.w	r5, #1000	; 0x3e8
 8000f80:	fbb6 f2f5 	udiv	r2, r6, r5
 8000f84:	4413      	add	r3, r2
 8000f86:	9302      	str	r3, [sp, #8]
 8000f88:	fb05 6212 	mls	r2, r5, r2, r6
 8000f8c:	9b03      	ldr	r3, [sp, #12]
 8000f8e:	4e12      	ldr	r6, [pc, #72]	; (8000fd8 <_ZN3ros11NodeHandle_I13STM32HardwareLi25ELi25ELi512ELi512EE8syncTimeEPh+0x80>)
 8000f90:	fb06 3202 	mla	r2, r6, r2, r3
 8000f94:	9203      	str	r2, [sp, #12]
 8000f96:	f000 fb59 	bl	800164c <HAL_GetTick>
 8000f9a:	9a02      	ldr	r2, [sp, #8]
 8000f9c:	fbb0 f3f5 	udiv	r3, r0, r5
 8000fa0:	3a01      	subs	r2, #1
 8000fa2:	1ad2      	subs	r2, r2, r3
 8000fa4:	9903      	ldr	r1, [sp, #12]
 8000fa6:	f8c4 2418 	str.w	r2, [r4, #1048]	; 0x418
 8000faa:	4a0c      	ldr	r2, [pc, #48]	; (8000fdc <_ZN3ros11NodeHandle_I13STM32HardwareLi25ELi25ELi512ELi512EE8syncTimeEPh+0x84>)
 8000fac:	fb05 0313 	mls	r3, r5, r3, r0
 8000fb0:	440a      	add	r2, r1
 8000fb2:	fb06 2313 	mls	r3, r6, r3, r2
 8000fb6:	f8c4 341c 	str.w	r3, [r4, #1052]	; 0x41c
 8000fba:	f204 411c 	addw	r1, r4, #1052	; 0x41c
 8000fbe:	f504 6083 	add.w	r0, r4, #1048	; 0x418
 8000fc2:	f7ff fa8f 	bl	80004e4 <_ZN3ros16normalizeSecNSecERmS0_>
 8000fc6:	f000 fb41 	bl	800164c <HAL_GetTick>
 8000fca:	f8c4 0908 	str.w	r0, [r4, #2312]	; 0x908
 8000fce:	b004      	add	sp, #16
 8000fd0:	bd70      	pop	{r4, r5, r6, pc}
 8000fd2:	bf00      	nop
 8000fd4:	08002e30 	.word	0x08002e30
 8000fd8:	000f4240 	.word	0x000f4240
 8000fdc:	3b9aca00 	.word	0x3b9aca00

08000fe0 <_ZN3ros11NodeHandle_I13STM32HardwareLi25ELi25ELi512ELi512EE8spinOnceEv>:
 8000fe0:	e92d 43f8 	stmdb	sp!, {r3, r4, r5, r6, r7, r8, r9, lr}
 8000fe4:	4604      	mov	r4, r0
 8000fe6:	f000 fb31 	bl	800164c <HAL_GetTick>
 8000fea:	f8d4 3908 	ldr.w	r3, [r4, #2312]	; 0x908
 8000fee:	f642 22f8 	movw	r2, #11000	; 0x2af8
 8000ff2:	1ac3      	subs	r3, r0, r3
 8000ff4:	4293      	cmp	r3, r2
 8000ff6:	bf84      	itt	hi
 8000ff8:	2300      	movhi	r3, #0
 8000ffa:	f884 3900 	strbhi.w	r3, [r4, #2304]	; 0x900
 8000ffe:	f8d4 38ec 	ldr.w	r3, [r4, #2284]	; 0x8ec
 8001002:	4605      	mov	r5, r0
 8001004:	b133      	cbz	r3, 8001014 <_ZN3ros11NodeHandle_I13STM32HardwareLi25ELi25ELi512ELi512EE8spinOnceEv+0x34>
 8001006:	f8d4 390c 	ldr.w	r3, [r4, #2316]	; 0x90c
 800100a:	4283      	cmp	r3, r0
 800100c:	bf3c      	itt	cc
 800100e:	2300      	movcc	r3, #0
 8001010:	f8c4 38ec 	strcc.w	r3, [r4, #2284]	; 0x8ec
 8001014:	2600      	movs	r6, #0
 8001016:	f204 4724 	addw	r7, r4, #1060	; 0x424
 800101a:	f604 1814 	addw	r8, r4, #2324	; 0x914
 800101e:	f8d4 3420 	ldr.w	r3, [r4, #1056]	; 0x420
 8001022:	b98b      	cbnz	r3, 8001048 <_ZN3ros11NodeHandle_I13STM32HardwareLi25ELi25ELi512ELi512EE8spinOnceEv+0x68>
 8001024:	6862      	ldr	r2, [r4, #4]
 8001026:	f8d4 3208 	ldr.w	r3, [r4, #520]	; 0x208
 800102a:	6b52      	ldr	r2, [r2, #52]	; 0x34
 800102c:	6812      	ldr	r2, [r2, #0]
 800102e:	6852      	ldr	r2, [r2, #4]
 8001030:	4252      	negs	r2, r2
 8001032:	f3c2 0208 	ubfx	r2, r2, #0, #9
 8001036:	4293      	cmp	r3, r2
 8001038:	d110      	bne.n	800105c <_ZN3ros11NodeHandle_I13STM32HardwareLi25ELi25ELi512ELi512EE8spinOnceEv+0x7c>
 800103a:	f894 0900 	ldrb.w	r0, [r4, #2304]	; 0x900
 800103e:	2800      	cmp	r0, #0
 8001040:	f040 80d5 	bne.w	80011ee <_ZN3ros11NodeHandle_I13STM32HardwareLi25ELi25ELi512ELi512EE8spinOnceEv+0x20e>
 8001044:	e8bd 83f8 	ldmia.w	sp!, {r3, r4, r5, r6, r7, r8, r9, pc}
 8001048:	f000 fb00 	bl	800164c <HAL_GetTick>
 800104c:	f8d4 3420 	ldr.w	r3, [r4, #1056]	; 0x420
 8001050:	1b40      	subs	r0, r0, r5
 8001052:	4298      	cmp	r0, r3
 8001054:	d9e6      	bls.n	8001024 <_ZN3ros11NodeHandle_I13STM32HardwareLi25ELi25ELi512ELi512EE8spinOnceEv+0x44>
 8001056:	f06f 0001 	mvn.w	r0, #1
 800105a:	e7f3      	b.n	8001044 <_ZN3ros11NodeHandle_I13STM32HardwareLi25ELi25ELi512ELi512EE8spinOnceEv+0x64>
 800105c:	18e2      	adds	r2, r4, r3
 800105e:	3301      	adds	r3, #1
 8001060:	f3c3 0308 	ubfx	r3, r3, #0, #9
 8001064:	7a12      	ldrb	r2, [r2, #8]
 8001066:	f8d4 98ec 	ldr.w	r9, [r4, #2284]	; 0x8ec
 800106a:	f8c4 3208 	str.w	r3, [r4, #520]	; 0x208
 800106e:	f8d4 38fc 	ldr.w	r3, [r4, #2300]	; 0x8fc
 8001072:	f1b9 0f07 	cmp.w	r9, #7
 8001076:	4413      	add	r3, r2
 8001078:	f8c4 38fc 	str.w	r3, [r4, #2300]	; 0x8fc
 800107c:	d112      	bne.n	80010a4 <_ZN3ros11NodeHandle_I13STM32HardwareLi25ELi25ELi512ELi512EE8spinOnceEv+0xc4>
 800107e:	f8d4 38f8 	ldr.w	r3, [r4, #2296]	; 0x8f8
 8001082:	1c59      	adds	r1, r3, #1
 8001084:	4423      	add	r3, r4
 8001086:	f8c4 18f8 	str.w	r1, [r4, #2296]	; 0x8f8
 800108a:	f883 2424 	strb.w	r2, [r3, #1060]	; 0x424
 800108e:	f8d4 38f0 	ldr.w	r3, [r4, #2288]	; 0x8f0
 8001092:	3b01      	subs	r3, #1
 8001094:	f8c4 38f0 	str.w	r3, [r4, #2288]	; 0x8f0
 8001098:	2b00      	cmp	r3, #0
 800109a:	d1c0      	bne.n	800101e <_ZN3ros11NodeHandle_I13STM32HardwareLi25ELi25ELi512ELi512EE8spinOnceEv+0x3e>
 800109c:	2308      	movs	r3, #8
 800109e:	f8c4 38ec 	str.w	r3, [r4, #2284]	; 0x8ec
 80010a2:	e7bc      	b.n	800101e <_ZN3ros11NodeHandle_I13STM32HardwareLi25ELi25ELi512ELi512EE8spinOnceEv+0x3e>
 80010a4:	f1b9 0f00 	cmp.w	r9, #0
 80010a8:	d113      	bne.n	80010d2 <_ZN3ros11NodeHandle_I13STM32HardwareLi25ELi25ELi512ELi512EE8spinOnceEv+0xf2>
 80010aa:	2aff      	cmp	r2, #255	; 0xff
 80010ac:	d107      	bne.n	80010be <_ZN3ros11NodeHandle_I13STM32HardwareLi25ELi25ELi512ELi512EE8spinOnceEv+0xde>
 80010ae:	2301      	movs	r3, #1
 80010b0:	f8c4 38ec 	str.w	r3, [r4, #2284]	; 0x8ec
 80010b4:	f105 0314 	add.w	r3, r5, #20
 80010b8:	f8c4 390c 	str.w	r3, [r4, #2316]	; 0x90c
 80010bc:	e7af      	b.n	800101e <_ZN3ros11NodeHandle_I13STM32HardwareLi25ELi25ELi512ELi512EE8spinOnceEv+0x3e>
 80010be:	f000 fac5 	bl	800164c <HAL_GetTick>
 80010c2:	f241 3388 	movw	r3, #5000	; 0x1388
 80010c6:	1b40      	subs	r0, r0, r5
 80010c8:	4298      	cmp	r0, r3
 80010ca:	d9a8      	bls.n	800101e <_ZN3ros11NodeHandle_I13STM32HardwareLi25ELi25ELi512ELi512EE8spinOnceEv+0x3e>
 80010cc:	f884 9900 	strb.w	r9, [r4, #2304]	; 0x900
 80010d0:	e7c1      	b.n	8001056 <_ZN3ros11NodeHandle_I13STM32HardwareLi25ELi25ELi512ELi512EE8spinOnceEv+0x76>
 80010d2:	f1b9 0f01 	cmp.w	r9, #1
 80010d6:	d10d      	bne.n	80010f4 <_ZN3ros11NodeHandle_I13STM32HardwareLi25ELi25ELi512ELi512EE8spinOnceEv+0x114>
 80010d8:	2afe      	cmp	r2, #254	; 0xfe
 80010da:	d101      	bne.n	80010e0 <_ZN3ros11NodeHandle_I13STM32HardwareLi25ELi25ELi512ELi512EE8spinOnceEv+0x100>
 80010dc:	2302      	movs	r3, #2
 80010de:	e7de      	b.n	800109e <_ZN3ros11NodeHandle_I13STM32HardwareLi25ELi25ELi512ELi512EE8spinOnceEv+0xbe>
 80010e0:	f894 3900 	ldrb.w	r3, [r4, #2304]	; 0x900
 80010e4:	f8c4 68ec 	str.w	r6, [r4, #2284]	; 0x8ec
 80010e8:	2b00      	cmp	r3, #0
 80010ea:	d198      	bne.n	800101e <_ZN3ros11NodeHandle_I13STM32HardwareLi25ELi25ELi512ELi512EE8spinOnceEv+0x3e>
 80010ec:	4620      	mov	r0, r4
 80010ee:	f7ff febd 	bl	8000e6c <_ZN3ros11NodeHandle_I13STM32HardwareLi25ELi25ELi512ELi512EE15requestSyncTimeEv>
 80010f2:	e794      	b.n	800101e <_ZN3ros11NodeHandle_I13STM32HardwareLi25ELi25ELi512ELi512EE8spinOnceEv+0x3e>
 80010f4:	f1b9 0f02 	cmp.w	r9, #2
 80010f8:	d109      	bne.n	800110e <_ZN3ros11NodeHandle_I13STM32HardwareLi25ELi25ELi512ELi512EE8spinOnceEv+0x12e>
 80010fa:	f8c4 28f0 	str.w	r2, [r4, #2288]	; 0x8f0
 80010fe:	f8c4 68f8 	str.w	r6, [r4, #2296]	; 0x8f8
 8001102:	2303      	movs	r3, #3
 8001104:	f8c4 38ec 	str.w	r3, [r4, #2284]	; 0x8ec
 8001108:	f8c4 28fc 	str.w	r2, [r4, #2300]	; 0x8fc
 800110c:	e787      	b.n	800101e <_ZN3ros11NodeHandle_I13STM32HardwareLi25ELi25ELi512ELi512EE8spinOnceEv+0x3e>
 800110e:	f1b9 0f03 	cmp.w	r9, #3
 8001112:	d107      	bne.n	8001124 <_ZN3ros11NodeHandle_I13STM32HardwareLi25ELi25ELi512ELi512EE8spinOnceEv+0x144>
 8001114:	f8d4 38f0 	ldr.w	r3, [r4, #2288]	; 0x8f0
 8001118:	eb03 2202 	add.w	r2, r3, r2, lsl #8
 800111c:	f8c4 28f0 	str.w	r2, [r4, #2288]	; 0x8f0
 8001120:	2304      	movs	r3, #4
 8001122:	e7bc      	b.n	800109e <_ZN3ros11NodeHandle_I13STM32HardwareLi25ELi25ELi512ELi512EE8spinOnceEv+0xbe>
 8001124:	f1b9 0f04 	cmp.w	r9, #4
 8001128:	d10b      	bne.n	8001142 <_ZN3ros11NodeHandle_I13STM32HardwareLi25ELi25ELi512ELi512EE8spinOnceEv+0x162>
 800112a:	425a      	negs	r2, r3
 800112c:	b2d2      	uxtb	r2, r2
 800112e:	b2db      	uxtb	r3, r3
 8001130:	bf58      	it	pl
 8001132:	4253      	negpl	r3, r2
 8001134:	2bff      	cmp	r3, #255	; 0xff
 8001136:	d101      	bne.n	800113c <_ZN3ros11NodeHandle_I13STM32HardwareLi25ELi25ELi512ELi512EE8spinOnceEv+0x15c>
 8001138:	2305      	movs	r3, #5
 800113a:	e7b0      	b.n	800109e <_ZN3ros11NodeHandle_I13STM32HardwareLi25ELi25ELi512ELi512EE8spinOnceEv+0xbe>
 800113c:	f8c4 68ec 	str.w	r6, [r4, #2284]	; 0x8ec
 8001140:	e76d      	b.n	800101e <_ZN3ros11NodeHandle_I13STM32HardwareLi25ELi25ELi512ELi512EE8spinOnceEv+0x3e>
 8001142:	f1b9 0f05 	cmp.w	r9, #5
 8001146:	d103      	bne.n	8001150 <_ZN3ros11NodeHandle_I13STM32HardwareLi25ELi25ELi512ELi512EE8spinOnceEv+0x170>
 8001148:	f8c4 28f4 	str.w	r2, [r4, #2292]	; 0x8f4
 800114c:	2306      	movs	r3, #6
 800114e:	e7d9      	b.n	8001104 <_ZN3ros11NodeHandle_I13STM32HardwareLi25ELi25ELi512ELi512EE8spinOnceEv+0x124>
 8001150:	f1b9 0f06 	cmp.w	r9, #6
 8001154:	d10b      	bne.n	800116e <_ZN3ros11NodeHandle_I13STM32HardwareLi25ELi25ELi512ELi512EE8spinOnceEv+0x18e>
 8001156:	f8d4 38f4 	ldr.w	r3, [r4, #2292]	; 0x8f4
 800115a:	eb03 2202 	add.w	r2, r3, r2, lsl #8
 800115e:	2307      	movs	r3, #7
 8001160:	f8c4 38ec 	str.w	r3, [r4, #2284]	; 0x8ec
 8001164:	f8c4 28f4 	str.w	r2, [r4, #2292]	; 0x8f4
 8001168:	f8d4 38f0 	ldr.w	r3, [r4, #2288]	; 0x8f0
 800116c:	e794      	b.n	8001098 <_ZN3ros11NodeHandle_I13STM32HardwareLi25ELi25ELi512ELi512EE8spinOnceEv+0xb8>
 800116e:	f1b9 0f08 	cmp.w	r9, #8
 8001172:	f47f af54 	bne.w	800101e <_ZN3ros11NodeHandle_I13STM32HardwareLi25ELi25ELi512ELi512EE8spinOnceEv+0x3e>
 8001176:	425a      	negs	r2, r3
 8001178:	b2d2      	uxtb	r2, r2
 800117a:	b2db      	uxtb	r3, r3
 800117c:	bf58      	it	pl
 800117e:	4253      	negpl	r3, r2
 8001180:	2bff      	cmp	r3, #255	; 0xff
 8001182:	f8c4 68ec 	str.w	r6, [r4, #2284]	; 0x8ec
 8001186:	f47f af4a 	bne.w	800101e <_ZN3ros11NodeHandle_I13STM32HardwareLi25ELi25ELi512ELi512EE8spinOnceEv+0x3e>
 800118a:	f8d4 38f4 	ldr.w	r3, [r4, #2292]	; 0x8f4
 800118e:	b963      	cbnz	r3, 80011aa <_ZN3ros11NodeHandle_I13STM32HardwareLi25ELi25ELi512ELi512EE8spinOnceEv+0x1ca>
 8001190:	4620      	mov	r0, r4
 8001192:	f7ff fe6b 	bl	8000e6c <_ZN3ros11NodeHandle_I13STM32HardwareLi25ELi25ELi512ELi512EE15requestSyncTimeEv>
 8001196:	4620      	mov	r0, r4
 8001198:	f7ff fe7c 	bl	8000e94 <_ZN3ros11NodeHandle_I13STM32HardwareLi25ELi25ELi512ELi512EE15negotiateTopicsEv>
 800119c:	f8c4 5904 	str.w	r5, [r4, #2308]	; 0x904
 80011a0:	f8c4 5908 	str.w	r5, [r4, #2312]	; 0x908
 80011a4:	f04f 30ff 	mov.w	r0, #4294967295	; 0xffffffff
 80011a8:	e74c      	b.n	8001044 <_ZN3ros11NodeHandle_I13STM32HardwareLi25ELi25ELi512ELi512EE8spinOnceEv+0x64>
 80011aa:	2b0a      	cmp	r3, #10
 80011ac:	d104      	bne.n	80011b8 <_ZN3ros11NodeHandle_I13STM32HardwareLi25ELi25ELi512ELi512EE8spinOnceEv+0x1d8>
 80011ae:	4639      	mov	r1, r7
 80011b0:	4620      	mov	r0, r4
 80011b2:	f7ff fed1 	bl	8000f58 <_ZN3ros11NodeHandle_I13STM32HardwareLi25ELi25ELi512ELi512EE8syncTimeEPh>
 80011b6:	e732      	b.n	800101e <_ZN3ros11NodeHandle_I13STM32HardwareLi25ELi25ELi512ELi512EE8spinOnceEv+0x3e>
 80011b8:	2b06      	cmp	r3, #6
 80011ba:	d107      	bne.n	80011cc <_ZN3ros11NodeHandle_I13STM32HardwareLi25ELi25ELi512ELi512EE8spinOnceEv+0x1ec>
 80011bc:	4639      	mov	r1, r7
 80011be:	4640      	mov	r0, r8
 80011c0:	f7ff fd85 	bl	8000cce <_ZN14rosserial_msgs20RequestParamResponse11deserializeEPh>
 80011c4:	2301      	movs	r3, #1
 80011c6:	f884 3910 	strb.w	r3, [r4, #2320]	; 0x910
 80011ca:	e728      	b.n	800101e <_ZN3ros11NodeHandle_I13STM32HardwareLi25ELi25ELi512ELi512EE8spinOnceEv+0x3e>
 80011cc:	2b0b      	cmp	r3, #11
 80011ce:	d102      	bne.n	80011d6 <_ZN3ros11NodeHandle_I13STM32HardwareLi25ELi25ELi512ELi512EE8spinOnceEv+0x1f6>
 80011d0:	f884 6900 	strb.w	r6, [r4, #2304]	; 0x900
 80011d4:	e723      	b.n	800101e <_ZN3ros11NodeHandle_I13STM32HardwareLi25ELi25ELi512ELi512EE8spinOnceEv+0x3e>
 80011d6:	f503 73df 	add.w	r3, r3, #446	; 0x1be
 80011da:	f854 0023 	ldr.w	r0, [r4, r3, lsl #2]
 80011de:	2800      	cmp	r0, #0
 80011e0:	f43f af1d 	beq.w	800101e <_ZN3ros11NodeHandle_I13STM32HardwareLi25ELi25ELi512ELi512EE8spinOnceEv+0x3e>
 80011e4:	6803      	ldr	r3, [r0, #0]
 80011e6:	4639      	mov	r1, r7
 80011e8:	681b      	ldr	r3, [r3, #0]
 80011ea:	4798      	blx	r3
 80011ec:	e717      	b.n	800101e <_ZN3ros11NodeHandle_I13STM32HardwareLi25ELi25ELi512ELi512EE8spinOnceEv+0x3e>
 80011ee:	f8d4 3904 	ldr.w	r3, [r4, #2308]	; 0x904
 80011f2:	f640 12c4 	movw	r2, #2500	; 0x9c4
 80011f6:	1aeb      	subs	r3, r5, r3
 80011f8:	4293      	cmp	r3, r2
 80011fa:	d904      	bls.n	8001206 <_ZN3ros11NodeHandle_I13STM32HardwareLi25ELi25ELi512ELi512EE8spinOnceEv+0x226>
 80011fc:	4620      	mov	r0, r4
 80011fe:	f7ff fe35 	bl	8000e6c <_ZN3ros11NodeHandle_I13STM32HardwareLi25ELi25ELi512ELi512EE15requestSyncTimeEv>
 8001202:	f8c4 5904 	str.w	r5, [r4, #2308]	; 0x904
 8001206:	2000      	movs	r0, #0
 8001208:	e71c      	b.n	8001044 <_ZN3ros11NodeHandle_I13STM32HardwareLi25ELi25ELi512ELi512EE8spinOnceEv+0x64>
	...

0800120c <loop>:
 800120c:	b508      	push	{r3, lr}
 800120e:	2120      	movs	r1, #32
 8001210:	4805      	ldr	r0, [pc, #20]	; (8001228 <loop+0x1c>)
 8001212:	f000 fd10 	bl	8001c36 <HAL_GPIO_TogglePin>
 8001216:	4805      	ldr	r0, [pc, #20]	; (800122c <loop+0x20>)
 8001218:	f7ff fee2 	bl	8000fe0 <_ZN3ros11NodeHandle_I13STM32HardwareLi25ELi25ELi512ELi512EE8spinOnceEv>
 800121c:	f44f 707a 	mov.w	r0, #1000	; 0x3e8
 8001220:	e8bd 4008 	ldmia.w	sp!, {r3, lr}
 8001224:	f000 ba18 	b.w	8001658 <HAL_Delay>
 8001228:	40020000 	.word	0x40020000
 800122c:	20000090 	.word	0x20000090

08001230 <_GLOBAL__sub_I_nh>:
 8001230:	4b2f      	ldr	r3, [pc, #188]	; (80012f0 <_GLOBAL__sub_I_nh+0xc0>)
 8001232:	4a30      	ldr	r2, [pc, #192]	; (80012f4 <_GLOBAL__sub_I_nh+0xc4>)
 8001234:	4930      	ldr	r1, [pc, #192]	; (80012f8 <_GLOBAL__sub_I_nh+0xc8>)
 8001236:	b530      	push	{r4, r5, lr}
 8001238:	601a      	str	r2, [r3, #0]
 800123a:	4a30      	ldr	r2, [pc, #192]	; (80012fc <_GLOBAL__sub_I_nh+0xcc>)
 800123c:	605a      	str	r2, [r3, #4]
 800123e:	2200      	movs	r2, #0
 8001240:	f8c3 2208 	str.w	r2, [r3, #520]	; 0x208
 8001244:	f8c3 240c 	str.w	r2, [r3, #1036]	; 0x40c
 8001248:	f8c3 2410 	str.w	r2, [r3, #1040]	; 0x410
 800124c:	f883 2900 	strb.w	r2, [r3, #2304]	; 0x900
 8001250:	f8c3 1914 	str.w	r1, [r3, #2324]	; 0x914
 8001254:	f8c3 2930 	str.w	r2, [r3, #2352]	; 0x930
 8001258:	f8c3 2938 	str.w	r2, [r3, #2360]	; 0x938
 800125c:	4610      	mov	r0, r2
 800125e:	1899      	adds	r1, r3, r2
 8001260:	3204      	adds	r2, #4
 8001262:	2a64      	cmp	r2, #100	; 0x64
 8001264:	f8c1 0824 	str.w	r0, [r1, #2084]	; 0x824
 8001268:	d1f9      	bne.n	800125e <_GLOBAL__sub_I_nh+0x2e>
 800126a:	2200      	movs	r2, #0
 800126c:	4610      	mov	r0, r2
 800126e:	1899      	adds	r1, r3, r2
 8001270:	3204      	adds	r2, #4
 8001272:	2a64      	cmp	r2, #100	; 0x64
 8001274:	f8c1 0888 	str.w	r0, [r1, #2184]	; 0x888
 8001278:	d1f9      	bne.n	800126e <_GLOBAL__sub_I_nh+0x3e>
 800127a:	2200      	movs	r2, #0
 800127c:	4610      	mov	r0, r2
 800127e:	1899      	adds	r1, r3, r2
 8001280:	3201      	adds	r2, #1
 8001282:	f5b2 7f00 	cmp.w	r2, #512	; 0x200
 8001286:	f881 0424 	strb.w	r0, [r1, #1060]	; 0x424
 800128a:	d1f8      	bne.n	800127e <_GLOBAL__sub_I_nh+0x4e>
 800128c:	2100      	movs	r1, #0
 800128e:	460a      	mov	r2, r1
 8001290:	1858      	adds	r0, r3, r1
 8001292:	3101      	adds	r1, #1
 8001294:	f5b1 7f00 	cmp.w	r1, #512	; 0x200
 8001298:	f880 2624 	strb.w	r2, [r0, #1572]	; 0x624
 800129c:	d1f8      	bne.n	8001290 <_GLOBAL__sub_I_nh+0x60>
 800129e:	f8c3 2918 	str.w	r2, [r3, #2328]	; 0x918
 80012a2:	f8c3 2920 	str.w	r2, [r3, #2336]	; 0x920
 80012a6:	f8c3 2924 	str.w	r2, [r3, #2340]	; 0x924
 80012aa:	f8c3 292c 	str.w	r2, [r3, #2348]	; 0x92c
 80012ae:	f8c3 2420 	str.w	r2, [r3, #1056]	; 0x420
 80012b2:	4b13      	ldr	r3, [pc, #76]	; (8001300 <_GLOBAL__sub_I_nh+0xd0>)
 80012b4:	4913      	ldr	r1, [pc, #76]	; (8001304 <_GLOBAL__sub_I_nh+0xd4>)
 80012b6:	6159      	str	r1, [r3, #20]
 80012b8:	4c13      	ldr	r4, [pc, #76]	; (8001308 <_GLOBAL__sub_I_nh+0xd8>)
 80012ba:	4814      	ldr	r0, [pc, #80]	; (800130c <_GLOBAL__sub_I_nh+0xdc>)
 80012bc:	4d14      	ldr	r5, [pc, #80]	; (8001310 <_GLOBAL__sub_I_nh+0xe0>)
 80012be:	821a      	strh	r2, [r3, #16]
 80012c0:	2101      	movs	r1, #1
 80012c2:	609d      	str	r5, [r3, #8]
 80012c4:	601c      	str	r4, [r3, #0]
 80012c6:	60d8      	str	r0, [r3, #12]
 80012c8:	6199      	str	r1, [r3, #24]
 80012ca:	4d12      	ldr	r5, [pc, #72]	; (8001314 <_GLOBAL__sub_I_nh+0xe4>)
 80012cc:	4b12      	ldr	r3, [pc, #72]	; (8001318 <_GLOBAL__sub_I_nh+0xe8>)
 80012ce:	e9c3 5105 	strd	r5, r1, [r3, #20]
 80012d2:	4d12      	ldr	r5, [pc, #72]	; (800131c <_GLOBAL__sub_I_nh+0xec>)
 80012d4:	821a      	strh	r2, [r3, #16]
 80012d6:	601c      	str	r4, [r3, #0]
 80012d8:	60d8      	str	r0, [r3, #12]
 80012da:	609d      	str	r5, [r3, #8]
 80012dc:	4b10      	ldr	r3, [pc, #64]	; (8001320 <_GLOBAL__sub_I_nh+0xf0>)
 80012de:	821a      	strh	r2, [r3, #16]
 80012e0:	4a10      	ldr	r2, [pc, #64]	; (8001324 <_GLOBAL__sub_I_nh+0xf4>)
 80012e2:	601c      	str	r4, [r3, #0]
 80012e4:	e9c3 2105 	strd	r2, r1, [r3, #20]
 80012e8:	4a0f      	ldr	r2, [pc, #60]	; (8001328 <_GLOBAL__sub_I_nh+0xf8>)
 80012ea:	60d8      	str	r0, [r3, #12]
 80012ec:	609a      	str	r2, [r3, #8]
 80012ee:	bd30      	pop	{r4, r5, pc}
 80012f0:	20000090 	.word	0x20000090
 80012f4:	08002ea8 	.word	0x08002ea8
 80012f8:	08002e78 	.word	0x08002e78
 80012fc:	20000b2c 	.word	0x20000b2c
 8001300:	200009cc 	.word	0x200009cc
 8001304:	08000835 	.word	0x08000835
 8001308:	08002ebc 	.word	0x08002ebc
 800130c:	08002e90 	.word	0x08002e90
 8001310:	08002ecc 	.word	0x08002ecc
 8001314:	08000845 	.word	0x08000845
 8001318:	200009e8 	.word	0x200009e8
 800131c:	08002ed9 	.word	0x08002ed9
 8001320:	20000a04 	.word	0x20000a04
 8001324:	08000855 	.word	0x08000855
 8001328:	08002ee6 	.word	0x08002ee6

0800132c <HAL_MspInit>:
 800132c:	b082      	sub	sp, #8
 800132e:	4b0d      	ldr	r3, [pc, #52]	; (8001364 <HAL_MspInit+0x38>)
 8001330:	2100      	movs	r1, #0
 8001332:	9100      	str	r1, [sp, #0]
 8001334:	6c5a      	ldr	r2, [r3, #68]	; 0x44
 8001336:	f442 4280 	orr.w	r2, r2, #16384	; 0x4000
 800133a:	645a      	str	r2, [r3, #68]	; 0x44
 800133c:	6c5a      	ldr	r2, [r3, #68]	; 0x44
 800133e:	f402 4280 	and.w	r2, r2, #16384	; 0x4000
 8001342:	9200      	str	r2, [sp, #0]
 8001344:	9a00      	ldr	r2, [sp, #0]
 8001346:	9101      	str	r1, [sp, #4]
 8001348:	6c1a      	ldr	r2, [r3, #64]	; 0x40
 800134a:	f042 5280 	orr.w	r2, r2, #268435456	; 0x10000000
 800134e:	641a      	str	r2, [r3, #64]	; 0x40
 8001350:	6c1b      	ldr	r3, [r3, #64]	; 0x40
 8001352:	f003 5380 	and.w	r3, r3, #268435456	; 0x10000000
 8001356:	9301      	str	r3, [sp, #4]
 8001358:	9b01      	ldr	r3, [sp, #4]
 800135a:	2007      	movs	r0, #7
 800135c:	b002      	add	sp, #8
 800135e:	f000 b98f 	b.w	8001680 <HAL_NVIC_SetPriorityGrouping>
 8001362:	bf00      	nop
 8001364:	40023800 	.word	0x40023800

08001368 <HAL_TIM_Base_MspInit>:
 8001368:	6802      	ldr	r2, [r0, #0]
 800136a:	4b09      	ldr	r3, [pc, #36]	; (8001390 <HAL_TIM_Base_MspInit+0x28>)
 800136c:	429a      	cmp	r2, r3
 800136e:	b082      	sub	sp, #8
 8001370:	d10b      	bne.n	800138a <HAL_TIM_Base_MspInit+0x22>
 8001372:	2300      	movs	r3, #0
 8001374:	9301      	str	r3, [sp, #4]
 8001376:	4b07      	ldr	r3, [pc, #28]	; (8001394 <HAL_TIM_Base_MspInit+0x2c>)
 8001378:	6c5a      	ldr	r2, [r3, #68]	; 0x44
 800137a:	f042 0201 	orr.w	r2, r2, #1
 800137e:	645a      	str	r2, [r3, #68]	; 0x44
 8001380:	6c5b      	ldr	r3, [r3, #68]	; 0x44
 8001382:	f003 0301 	and.w	r3, r3, #1
 8001386:	9301      	str	r3, [sp, #4]
 8001388:	9b01      	ldr	r3, [sp, #4]
 800138a:	b002      	add	sp, #8
 800138c:	4770      	bx	lr
 800138e:	bf00      	nop
 8001390:	40010000 	.word	0x40010000
 8001394:	40023800 	.word	0x40023800

08001398 <HAL_TIM_MspPostInit>:
 8001398:	b510      	push	{r4, lr}
 800139a:	4604      	mov	r4, r0
 800139c:	b086      	sub	sp, #24
 800139e:	2214      	movs	r2, #20
 80013a0:	2100      	movs	r1, #0
 80013a2:	a801      	add	r0, sp, #4
 80013a4:	f001 fc3b 	bl	8002c1e <memset>
 80013a8:	6822      	ldr	r2, [r4, #0]
 80013aa:	4b0e      	ldr	r3, [pc, #56]	; (80013e4 <HAL_TIM_MspPostInit+0x4c>)
 80013ac:	429a      	cmp	r2, r3
 80013ae:	d116      	bne.n	80013de <HAL_TIM_MspPostInit+0x46>
 80013b0:	2300      	movs	r3, #0
 80013b2:	9300      	str	r3, [sp, #0]
 80013b4:	4b0c      	ldr	r3, [pc, #48]	; (80013e8 <HAL_TIM_MspPostInit+0x50>)
 80013b6:	480d      	ldr	r0, [pc, #52]	; (80013ec <HAL_TIM_MspPostInit+0x54>)
 80013b8:	6b1a      	ldr	r2, [r3, #48]	; 0x30
 80013ba:	f042 0201 	orr.w	r2, r2, #1
 80013be:	631a      	str	r2, [r3, #48]	; 0x30
 80013c0:	6b1b      	ldr	r3, [r3, #48]	; 0x30
 80013c2:	f003 0301 	and.w	r3, r3, #1
 80013c6:	9300      	str	r3, [sp, #0]
 80013c8:	9b00      	ldr	r3, [sp, #0]
 80013ca:	f44f 62e0 	mov.w	r2, #1792	; 0x700
 80013ce:	2302      	movs	r3, #2
 80013d0:	e9cd 2301 	strd	r2, r3, [sp, #4]
 80013d4:	a901      	add	r1, sp, #4
 80013d6:	2301      	movs	r3, #1
 80013d8:	9305      	str	r3, [sp, #20]
 80013da:	f000 fb59 	bl	8001a90 <HAL_GPIO_Init>
 80013de:	b006      	add	sp, #24
 80013e0:	bd10      	pop	{r4, pc}
 80013e2:	bf00      	nop
 80013e4:	40010000 	.word	0x40010000
 80013e8:	40023800 	.word	0x40023800
 80013ec:	40020000 	.word	0x40020000

080013f0 <HAL_UART_MspInit>:
 80013f0:	b570      	push	{r4, r5, r6, lr}
 80013f2:	4606      	mov	r6, r0
 80013f4:	b088      	sub	sp, #32
 80013f6:	2214      	movs	r2, #20
 80013f8:	2100      	movs	r1, #0
 80013fa:	a803      	add	r0, sp, #12
 80013fc:	f001 fc0f 	bl	8002c1e <memset>
 8001400:	6832      	ldr	r2, [r6, #0]
 8001402:	4b30      	ldr	r3, [pc, #192]	; (80014c4 <HAL_UART_MspInit+0xd4>)
 8001404:	429a      	cmp	r2, r3
 8001406:	d15b      	bne.n	80014c0 <HAL_UART_MspInit+0xd0>
 8001408:	2500      	movs	r5, #0
 800140a:	f503 33fa 	add.w	r3, r3, #128000	; 0x1f400
 800140e:	9501      	str	r5, [sp, #4]
 8001410:	6c1a      	ldr	r2, [r3, #64]	; 0x40
 8001412:	4c2d      	ldr	r4, [pc, #180]	; (80014c8 <HAL_UART_MspInit+0xd8>)
 8001414:	f442 3200 	orr.w	r2, r2, #131072	; 0x20000
 8001418:	641a      	str	r2, [r3, #64]	; 0x40
 800141a:	6c1a      	ldr	r2, [r3, #64]	; 0x40
 800141c:	f402 3200 	and.w	r2, r2, #131072	; 0x20000
 8001420:	9201      	str	r2, [sp, #4]
 8001422:	9a01      	ldr	r2, [sp, #4]
 8001424:	9502      	str	r5, [sp, #8]
 8001426:	6b1a      	ldr	r2, [r3, #48]	; 0x30
 8001428:	f042 0201 	orr.w	r2, r2, #1
 800142c:	631a      	str	r2, [r3, #48]	; 0x30
 800142e:	6b1b      	ldr	r3, [r3, #48]	; 0x30
 8001430:	f003 0301 	and.w	r3, r3, #1
 8001434:	9302      	str	r3, [sp, #8]
 8001436:	9b02      	ldr	r3, [sp, #8]
 8001438:	200c      	movs	r0, #12
 800143a:	2302      	movs	r3, #2
 800143c:	e9cd 0303 	strd	r0, r3, [sp, #12]
 8001440:	a903      	add	r1, sp, #12
 8001442:	2307      	movs	r3, #7
 8001444:	4821      	ldr	r0, [pc, #132]	; (80014cc <HAL_UART_MspInit+0xdc>)
 8001446:	9307      	str	r3, [sp, #28]
 8001448:	f000 fb22 	bl	8001a90 <HAL_GPIO_Init>
 800144c:	f8df c088 	ldr.w	ip, [pc, #136]	; 80014d8 <HAL_UART_MspInit+0xe8>
 8001450:	f04f 6300 	mov.w	r3, #134217728	; 0x8000000
 8001454:	e9c4 c300 	strd	ip, r3, [r4]
 8001458:	4620      	mov	r0, r4
 800145a:	f44f 6380 	mov.w	r3, #1024	; 0x400
 800145e:	e9c4 5502 	strd	r5, r5, [r4, #8]
 8001462:	e9c4 3504 	strd	r3, r5, [r4, #16]
 8001466:	e9c4 5506 	strd	r5, r5, [r4, #24]
 800146a:	e9c4 5508 	strd	r5, r5, [r4, #32]
 800146e:	f000 f987 	bl	8001780 <HAL_DMA_Init>
 8001472:	b108      	cbz	r0, 8001478 <HAL_UART_MspInit+0x88>
 8001474:	f7ff f972 	bl	800075c <Error_Handler>
 8001478:	6374      	str	r4, [r6, #52]	; 0x34
 800147a:	4a15      	ldr	r2, [pc, #84]	; (80014d0 <HAL_UART_MspInit+0xe0>)
 800147c:	63a6      	str	r6, [r4, #56]	; 0x38
 800147e:	4c15      	ldr	r4, [pc, #84]	; (80014d4 <HAL_UART_MspInit+0xe4>)
 8001480:	f04f 6300 	mov.w	r3, #134217728	; 0x8000000
 8001484:	e9c4 2300 	strd	r2, r3, [r4]
 8001488:	2140      	movs	r1, #64	; 0x40
 800148a:	2300      	movs	r3, #0
 800148c:	f44f 6280 	mov.w	r2, #1024	; 0x400
 8001490:	4620      	mov	r0, r4
 8001492:	e9c4 1302 	strd	r1, r3, [r4, #8]
 8001496:	e9c4 2304 	strd	r2, r3, [r4, #16]
 800149a:	e9c4 3306 	strd	r3, r3, [r4, #24]
 800149e:	e9c4 3308 	strd	r3, r3, [r4, #32]
 80014a2:	f000 f96d 	bl	8001780 <HAL_DMA_Init>
 80014a6:	b108      	cbz	r0, 80014ac <HAL_UART_MspInit+0xbc>
 80014a8:	f7ff f958 	bl	800075c <Error_Handler>
 80014ac:	2200      	movs	r2, #0
 80014ae:	6334      	str	r4, [r6, #48]	; 0x30
 80014b0:	2026      	movs	r0, #38	; 0x26
 80014b2:	4611      	mov	r1, r2
 80014b4:	63a6      	str	r6, [r4, #56]	; 0x38
 80014b6:	f000 f8f5 	bl	80016a4 <HAL_NVIC_SetPriority>
 80014ba:	2026      	movs	r0, #38	; 0x26
 80014bc:	f000 f926 	bl	800170c <HAL_NVIC_EnableIRQ>
 80014c0:	b008      	add	sp, #32
 80014c2:	bd70      	pop	{r4, r5, r6, pc}
 80014c4:	40004400 	.word	0x40004400
 80014c8:	20000a2c 	.word	0x20000a2c
 80014cc:	40020000 	.word	0x40020000
 80014d0:	400260a0 	.word	0x400260a0
 80014d4:	20000a8c 	.word	0x20000a8c
 80014d8:	40026088 	.word	0x40026088

080014dc <NMI_Handler>:
 80014dc:	4770      	bx	lr

080014de <HardFault_Handler>:
 80014de:	e7fe      	b.n	80014de <HardFault_Handler>

080014e0 <MemManage_Handler>:
 80014e0:	e7fe      	b.n	80014e0 <MemManage_Handler>

080014e2 <BusFault_Handler>:
 80014e2:	e7fe      	b.n	80014e2 <BusFault_Handler>

080014e4 <UsageFault_Handler>:
 80014e4:	e7fe      	b.n	80014e4 <UsageFault_Handler>

080014e6 <SVC_Handler>:
 80014e6:	4770      	bx	lr

080014e8 <DebugMon_Handler>:
 80014e8:	4770      	bx	lr

080014ea <PendSV_Handler>:
 80014ea:	4770      	bx	lr

080014ec <SysTick_Handler>:
 80014ec:	f000 b8a2 	b.w	8001634 <HAL_IncTick>

080014f0 <DMA1_Stream5_IRQHandler>:
 80014f0:	4801      	ldr	r0, [pc, #4]	; (80014f8 <DMA1_Stream5_IRQHandler+0x8>)
 80014f2:	f000 ba0f 	b.w	8001914 <HAL_DMA_IRQHandler>
 80014f6:	bf00      	nop
 80014f8:	20000a2c 	.word	0x20000a2c

080014fc <DMA1_Stream6_IRQHandler>:
 80014fc:	4801      	ldr	r0, [pc, #4]	; (8001504 <DMA1_Stream6_IRQHandler+0x8>)
 80014fe:	f000 ba09 	b.w	8001914 <HAL_DMA_IRQHandler>
 8001502:	bf00      	nop
 8001504:	20000a8c 	.word	0x20000a8c

08001508 <USART2_IRQHandler>:
 8001508:	4801      	ldr	r0, [pc, #4]	; (8001510 <USART2_IRQHandler+0x8>)
 800150a:	f001 baa9 	b.w	8002a60 <HAL_UART_IRQHandler>
 800150e:	bf00      	nop
 8001510:	20000b2c 	.word	0x20000b2c

08001514 <_sbrk>:
 8001514:	b508      	push	{r3, lr}
 8001516:	4b0a      	ldr	r3, [pc, #40]	; (8001540 <_sbrk+0x2c>)
 8001518:	6819      	ldr	r1, [r3, #0]
 800151a:	4602      	mov	r2, r0
 800151c:	b909      	cbnz	r1, 8001522 <_sbrk+0xe>
 800151e:	4909      	ldr	r1, [pc, #36]	; (8001544 <_sbrk+0x30>)
 8001520:	6019      	str	r1, [r3, #0]
 8001522:	6818      	ldr	r0, [r3, #0]
 8001524:	4669      	mov	r1, sp
 8001526:	4402      	add	r2, r0
 8001528:	428a      	cmp	r2, r1
 800152a:	d906      	bls.n	800153a <_sbrk+0x26>
 800152c:	f001 fb42 	bl	8002bb4 <__errno>
 8001530:	230c      	movs	r3, #12
 8001532:	6003      	str	r3, [r0, #0]
 8001534:	f04f 30ff 	mov.w	r0, #4294967295	; 0xffffffff
 8001538:	bd08      	pop	{r3, pc}
 800153a:	601a      	str	r2, [r3, #0]
 800153c:	e7fc      	b.n	8001538 <_sbrk+0x24>
 800153e:	bf00      	nop
 8001540:	20000a20 	.word	0x20000a20
 8001544:	20000b78 	.word	0x20000b78

08001548 <SystemInit>:
 8001548:	4b05      	ldr	r3, [pc, #20]	; (8001560 <SystemInit+0x18>)
 800154a:	f8d3 2088 	ldr.w	r2, [r3, #136]	; 0x88
 800154e:	f442 0270 	orr.w	r2, r2, #15728640	; 0xf00000
 8001552:	f8c3 2088 	str.w	r2, [r3, #136]	; 0x88
 8001556:	f04f 6200 	mov.w	r2, #134217728	; 0x8000000
 800155a:	609a      	str	r2, [r3, #8]
 800155c:	4770      	bx	lr
 800155e:	bf00      	nop
 8001560:	e000ed00 	.word	0xe000ed00

08001564 <Reset_Handler>:
 8001564:	f8df d034 	ldr.w	sp, [pc, #52]	; 800159c <LoopFillZerobss+0x14>
 8001568:	2100      	movs	r1, #0
 800156a:	e003      	b.n	8001574 <LoopCopyDataInit>

0800156c <CopyDataInit>:
 800156c:	4b0c      	ldr	r3, [pc, #48]	; (80015a0 <LoopFillZerobss+0x18>)
 800156e:	585b      	ldr	r3, [r3, r1]
 8001570:	5043      	str	r3, [r0, r1]
 8001572:	3104      	adds	r1, #4

08001574 <LoopCopyDataInit>:
 8001574:	480b      	ldr	r0, [pc, #44]	; (80015a4 <LoopFillZerobss+0x1c>)
 8001576:	4b0c      	ldr	r3, [pc, #48]	; (80015a8 <LoopFillZerobss+0x20>)
 8001578:	1842      	adds	r2, r0, r1
 800157a:	429a      	cmp	r2, r3
 800157c:	d3f6      	bcc.n	800156c <CopyDataInit>
 800157e:	4a0b      	ldr	r2, [pc, #44]	; (80015ac <LoopFillZerobss+0x24>)
 8001580:	e002      	b.n	8001588 <LoopFillZerobss>

08001582 <FillZerobss>:
 8001582:	2300      	movs	r3, #0
 8001584:	f842 3b04 	str.w	r3, [r2], #4

08001588 <LoopFillZerobss>:
 8001588:	4b09      	ldr	r3, [pc, #36]	; (80015b0 <LoopFillZerobss+0x28>)
 800158a:	429a      	cmp	r2, r3
 800158c:	d3f9      	bcc.n	8001582 <FillZerobss>
 800158e:	f7ff ffdb 	bl	8001548 <SystemInit>
 8001592:	f001 fb15 	bl	8002bc0 <__libc_init_array>
 8001596:	f7fe ffff 	bl	8000598 <main>
 800159a:	4770      	bx	lr
 800159c:	20018000 	.word	0x20018000
 80015a0:	0800306c 	.word	0x0800306c
 80015a4:	20000000 	.word	0x20000000
 80015a8:	20000070 	.word	0x20000070
 80015ac:	20000070 	.word	0x20000070
 80015b0:	20000b74 	.word	0x20000b74

080015b4 <ADC_IRQHandler>:
 80015b4:	e7fe      	b.n	80015b4 <ADC_IRQHandler>
	...

080015b8 <HAL_InitTick>:
 80015b8:	b538      	push	{r3, r4, r5, lr}
 80015ba:	4a0e      	ldr	r2, [pc, #56]	; (80015f4 <HAL_InitTick+0x3c>)
 80015bc:	4b0e      	ldr	r3, [pc, #56]	; (80015f8 <HAL_InitTick+0x40>)
 80015be:	4605      	mov	r5, r0
 80015c0:	7818      	ldrb	r0, [r3, #0]
 80015c2:	f44f 737a 	mov.w	r3, #1000	; 0x3e8
 80015c6:	fbb3 f3f0 	udiv	r3, r3, r0
 80015ca:	6810      	ldr	r0, [r2, #0]
 80015cc:	fbb0 f0f3 	udiv	r0, r0, r3
 80015d0:	f000 f8aa 	bl	8001728 <HAL_SYSTICK_Config>
 80015d4:	4604      	mov	r4, r0
 80015d6:	b958      	cbnz	r0, 80015f0 <HAL_InitTick+0x38>
 80015d8:	2d0f      	cmp	r5, #15
 80015da:	d809      	bhi.n	80015f0 <HAL_InitTick+0x38>
 80015dc:	4602      	mov	r2, r0
 80015de:	4629      	mov	r1, r5
 80015e0:	f04f 30ff 	mov.w	r0, #4294967295	; 0xffffffff
 80015e4:	f000 f85e 	bl	80016a4 <HAL_NVIC_SetPriority>
 80015e8:	4b04      	ldr	r3, [pc, #16]	; (80015fc <HAL_InitTick+0x44>)
 80015ea:	4620      	mov	r0, r4
 80015ec:	601d      	str	r5, [r3, #0]
 80015ee:	bd38      	pop	{r3, r4, r5, pc}
 80015f0:	2001      	movs	r0, #1
 80015f2:	e7fc      	b.n	80015ee <HAL_InitTick+0x36>
 80015f4:	20000000 	.word	0x20000000
 80015f8:	20000004 	.word	0x20000004
 80015fc:	20000008 	.word	0x20000008

08001600 <HAL_Init>:
 8001600:	b508      	push	{r3, lr}
 8001602:	4b0b      	ldr	r3, [pc, #44]	; (8001630 <HAL_Init+0x30>)
 8001604:	681a      	ldr	r2, [r3, #0]
 8001606:	f442 7200 	orr.w	r2, r2, #512	; 0x200
 800160a:	601a      	str	r2, [r3, #0]
 800160c:	681a      	ldr	r2, [r3, #0]
 800160e:	f442 6280 	orr.w	r2, r2, #1024	; 0x400
 8001612:	601a      	str	r2, [r3, #0]
 8001614:	681a      	ldr	r2, [r3, #0]
 8001616:	f442 7280 	orr.w	r2, r2, #256	; 0x100
 800161a:	601a      	str	r2, [r3, #0]
 800161c:	2003      	movs	r0, #3
 800161e:	f000 f82f 	bl	8001680 <HAL_NVIC_SetPriorityGrouping>
 8001622:	2000      	movs	r0, #0
 8001624:	f7ff ffc8 	bl	80015b8 <HAL_InitTick>
 8001628:	f7ff fe80 	bl	800132c <HAL_MspInit>
 800162c:	2000      	movs	r0, #0
 800162e:	bd08      	pop	{r3, pc}
 8001630:	40023c00 	.word	0x40023c00

08001634 <HAL_IncTick>:
 8001634:	4a03      	ldr	r2, [pc, #12]	; (8001644 <HAL_IncTick+0x10>)
 8001636:	4b04      	ldr	r3, [pc, #16]	; (8001648 <HAL_IncTick+0x14>)
 8001638:	6811      	ldr	r1, [r2, #0]
 800163a:	781b      	ldrb	r3, [r3, #0]
 800163c:	440b      	add	r3, r1
 800163e:	6013      	str	r3, [r2, #0]
 8001640:	4770      	bx	lr
 8001642:	bf00      	nop
 8001644:	20000b6c 	.word	0x20000b6c
 8001648:	20000004 	.word	0x20000004

0800164c <HAL_GetTick>:
 800164c:	4b01      	ldr	r3, [pc, #4]	; (8001654 <HAL_GetTick+0x8>)
 800164e:	6818      	ldr	r0, [r3, #0]
 8001650:	4770      	bx	lr
 8001652:	bf00      	nop
 8001654:	20000b6c 	.word	0x20000b6c

08001658 <HAL_Delay>:
 8001658:	b538      	push	{r3, r4, r5, lr}
 800165a:	4604      	mov	r4, r0
 800165c:	f7ff fff6 	bl	800164c <HAL_GetTick>
 8001660:	1c63      	adds	r3, r4, #1
 8001662:	bf1c      	itt	ne
 8001664:	4b05      	ldrne	r3, [pc, #20]	; (800167c <HAL_Delay+0x24>)
 8001666:	781b      	ldrbne	r3, [r3, #0]
 8001668:	4605      	mov	r5, r0
 800166a:	bf18      	it	ne
 800166c:	18e4      	addne	r4, r4, r3
 800166e:	f7ff ffed 	bl	800164c <HAL_GetTick>
 8001672:	1b40      	subs	r0, r0, r5
 8001674:	42a0      	cmp	r0, r4
 8001676:	d3fa      	bcc.n	800166e <HAL_Delay+0x16>
 8001678:	bd38      	pop	{r3, r4, r5, pc}
 800167a:	bf00      	nop
 800167c:	20000004 	.word	0x20000004

08001680 <HAL_NVIC_SetPriorityGrouping>:
 8001680:	4a07      	ldr	r2, [pc, #28]	; (80016a0 <HAL_NVIC_SetPriorityGrouping+0x20>)
 8001682:	68d3      	ldr	r3, [r2, #12]
 8001684:	f423 63e0 	bic.w	r3, r3, #1792	; 0x700
 8001688:	041b      	lsls	r3, r3, #16
 800168a:	0c1b      	lsrs	r3, r3, #16
 800168c:	f043 63bf 	orr.w	r3, r3, #100139008	; 0x5f80000
 8001690:	0200      	lsls	r0, r0, #8
 8001692:	f443 3300 	orr.w	r3, r3, #131072	; 0x20000
 8001696:	f400 60e0 	and.w	r0, r0, #1792	; 0x700
 800169a:	4303      	orrs	r3, r0
 800169c:	60d3      	str	r3, [r2, #12]
 800169e:	4770      	bx	lr
 80016a0:	e000ed00 	.word	0xe000ed00

080016a4 <HAL_NVIC_SetPriority>:
 80016a4:	4b17      	ldr	r3, [pc, #92]	; (8001704 <HAL_NVIC_SetPriority+0x60>)
 80016a6:	b570      	push	{r4, r5, r6, lr}
 80016a8:	68dc      	ldr	r4, [r3, #12]
 80016aa:	f3c4 2402 	ubfx	r4, r4, #8, #3
 80016ae:	f1c4 0507 	rsb	r5, r4, #7
 80016b2:	2d04      	cmp	r5, #4
 80016b4:	f104 0304 	add.w	r3, r4, #4
 80016b8:	bf28      	it	cs
 80016ba:	2504      	movcs	r5, #4
 80016bc:	f04f 36ff 	mov.w	r6, #4294967295	; 0xffffffff
 80016c0:	2b06      	cmp	r3, #6
 80016c2:	fa06 f305 	lsl.w	r3, r6, r5
 80016c6:	bf8c      	ite	hi
 80016c8:	3c03      	subhi	r4, #3
 80016ca:	2400      	movls	r4, #0
 80016cc:	ea21 0303 	bic.w	r3, r1, r3
 80016d0:	40a3      	lsls	r3, r4
 80016d2:	fa06 f404 	lsl.w	r4, r6, r4
 80016d6:	ea22 0404 	bic.w	r4, r2, r4
 80016da:	2800      	cmp	r0, #0
 80016dc:	ea43 0304 	orr.w	r3, r3, r4
 80016e0:	bfa8      	it	ge
 80016e2:	f100 4060 	addge.w	r0, r0, #3758096384	; 0xe0000000
 80016e6:	ea4f 1303 	mov.w	r3, r3, lsl #4
 80016ea:	bfbc      	itt	lt
 80016ec:	f000 000f 	andlt.w	r0, r0, #15
 80016f0:	4a05      	ldrlt	r2, [pc, #20]	; (8001708 <HAL_NVIC_SetPriority+0x64>)
 80016f2:	b2db      	uxtb	r3, r3
 80016f4:	bfaa      	itet	ge
 80016f6:	f500 4061 	addge.w	r0, r0, #57600	; 0xe100
 80016fa:	5413      	strblt	r3, [r2, r0]
 80016fc:	f880 3300 	strbge.w	r3, [r0, #768]	; 0x300
 8001700:	bd70      	pop	{r4, r5, r6, pc}
 8001702:	bf00      	nop
 8001704:	e000ed00 	.word	0xe000ed00
 8001708:	e000ed14 	.word	0xe000ed14

0800170c <HAL_NVIC_EnableIRQ>:
 800170c:	2800      	cmp	r0, #0
 800170e:	db08      	blt.n	8001722 <HAL_NVIC_EnableIRQ+0x16>
 8001710:	0942      	lsrs	r2, r0, #5
 8001712:	2301      	movs	r3, #1
 8001714:	f000 001f 	and.w	r0, r0, #31
 8001718:	fa03 f000 	lsl.w	r0, r3, r0
 800171c:	4b01      	ldr	r3, [pc, #4]	; (8001724 <HAL_NVIC_EnableIRQ+0x18>)
 800171e:	f843 0022 	str.w	r0, [r3, r2, lsl #2]
 8001722:	4770      	bx	lr
 8001724:	e000e100 	.word	0xe000e100

08001728 <HAL_SYSTICK_Config>:
 8001728:	3801      	subs	r0, #1
 800172a:	f1b0 7f80 	cmp.w	r0, #16777216	; 0x1000000
 800172e:	d20a      	bcs.n	8001746 <HAL_SYSTICK_Config+0x1e>
 8001730:	4b06      	ldr	r3, [pc, #24]	; (800174c <HAL_SYSTICK_Config+0x24>)
 8001732:	4a07      	ldr	r2, [pc, #28]	; (8001750 <HAL_SYSTICK_Config+0x28>)
 8001734:	6058      	str	r0, [r3, #4]
 8001736:	21f0      	movs	r1, #240	; 0xf0
 8001738:	f882 1023 	strb.w	r1, [r2, #35]	; 0x23
 800173c:	2000      	movs	r0, #0
 800173e:	2207      	movs	r2, #7
 8001740:	6098      	str	r0, [r3, #8]
 8001742:	601a      	str	r2, [r3, #0]
 8001744:	4770      	bx	lr
 8001746:	2001      	movs	r0, #1
 8001748:	4770      	bx	lr
 800174a:	bf00      	nop
 800174c:	e000e010 	.word	0xe000e010
 8001750:	e000ed00 	.word	0xe000ed00

08001754 <DMA_CalcBaseAndBitshift>:
 8001754:	6803      	ldr	r3, [r0, #0]
 8001756:	b2da      	uxtb	r2, r3
 8001758:	f423 737f 	bic.w	r3, r3, #1020	; 0x3fc
 800175c:	f023 0303 	bic.w	r3, r3, #3
 8001760:	2118      	movs	r1, #24
 8001762:	3a10      	subs	r2, #16
 8001764:	fbb2 f2f1 	udiv	r2, r2, r1
 8001768:	4904      	ldr	r1, [pc, #16]	; (800177c <DMA_CalcBaseAndBitshift+0x28>)
 800176a:	2a03      	cmp	r2, #3
 800176c:	bf88      	it	hi
 800176e:	3304      	addhi	r3, #4
 8001770:	5c89      	ldrb	r1, [r1, r2]
 8001772:	6583      	str	r3, [r0, #88]	; 0x58
 8001774:	65c1      	str	r1, [r0, #92]	; 0x5c
 8001776:	6d80      	ldr	r0, [r0, #88]	; 0x58
 8001778:	4770      	bx	lr
 800177a:	bf00      	nop
 800177c:	0800304f 	.word	0x0800304f

08001780 <HAL_DMA_Init>:
 8001780:	b570      	push	{r4, r5, r6, lr}
 8001782:	4604      	mov	r4, r0
 8001784:	f7ff ff62 	bl	800164c <HAL_GetTick>
 8001788:	4605      	mov	r5, r0
 800178a:	2c00      	cmp	r4, #0
 800178c:	d071      	beq.n	8001872 <HAL_DMA_Init+0xf2>
 800178e:	2300      	movs	r3, #0
 8001790:	f884 3034 	strb.w	r3, [r4, #52]	; 0x34
 8001794:	6822      	ldr	r2, [r4, #0]
 8001796:	2302      	movs	r3, #2
 8001798:	f884 3035 	strb.w	r3, [r4, #53]	; 0x35
 800179c:	6813      	ldr	r3, [r2, #0]
 800179e:	f023 0301 	bic.w	r3, r3, #1
 80017a2:	6013      	str	r3, [r2, #0]
 80017a4:	6821      	ldr	r1, [r4, #0]
 80017a6:	680b      	ldr	r3, [r1, #0]
 80017a8:	07d8      	lsls	r0, r3, #31
 80017aa:	d43c      	bmi.n	8001826 <HAL_DMA_Init+0xa6>
 80017ac:	680b      	ldr	r3, [r1, #0]
 80017ae:	4d32      	ldr	r5, [pc, #200]	; (8001878 <HAL_DMA_Init+0xf8>)
 80017b0:	69a0      	ldr	r0, [r4, #24]
 80017b2:	401d      	ands	r5, r3
 80017b4:	e9d4 2301 	ldrd	r2, r3, [r4, #4]
 80017b8:	4313      	orrs	r3, r2
 80017ba:	68e2      	ldr	r2, [r4, #12]
 80017bc:	4313      	orrs	r3, r2
 80017be:	6922      	ldr	r2, [r4, #16]
 80017c0:	4313      	orrs	r3, r2
 80017c2:	6962      	ldr	r2, [r4, #20]
 80017c4:	4313      	orrs	r3, r2
 80017c6:	69e2      	ldr	r2, [r4, #28]
 80017c8:	4303      	orrs	r3, r0
 80017ca:	4313      	orrs	r3, r2
 80017cc:	6a22      	ldr	r2, [r4, #32]
 80017ce:	4313      	orrs	r3, r2
 80017d0:	6a62      	ldr	r2, [r4, #36]	; 0x24
 80017d2:	2a04      	cmp	r2, #4
 80017d4:	ea43 0305 	orr.w	r3, r3, r5
 80017d8:	bf02      	ittt	eq
 80017da:	e9d4 560b 	ldrdeq	r5, r6, [r4, #44]	; 0x2c
 80017de:	4335      	orreq	r5, r6
 80017e0:	432b      	orreq	r3, r5
 80017e2:	600b      	str	r3, [r1, #0]
 80017e4:	694b      	ldr	r3, [r1, #20]
 80017e6:	2a04      	cmp	r2, #4
 80017e8:	f023 0307 	bic.w	r3, r3, #7
 80017ec:	ea43 0302 	orr.w	r3, r3, r2
 80017f0:	d10b      	bne.n	800180a <HAL_DMA_Init+0x8a>
 80017f2:	6aa2      	ldr	r2, [r4, #40]	; 0x28
 80017f4:	6ae5      	ldr	r5, [r4, #44]	; 0x2c
 80017f6:	4313      	orrs	r3, r2
 80017f8:	b13d      	cbz	r5, 800180a <HAL_DMA_Init+0x8a>
 80017fa:	b9f8      	cbnz	r0, 800183c <HAL_DMA_Init+0xbc>
 80017fc:	2a01      	cmp	r2, #1
 80017fe:	d02d      	beq.n	800185c <HAL_DMA_Init+0xdc>
 8001800:	d301      	bcc.n	8001806 <HAL_DMA_Init+0x86>
 8001802:	2a02      	cmp	r2, #2
 8001804:	d101      	bne.n	800180a <HAL_DMA_Init+0x8a>
 8001806:	01ea      	lsls	r2, r5, #7
 8001808:	d42b      	bmi.n	8001862 <HAL_DMA_Init+0xe2>
 800180a:	614b      	str	r3, [r1, #20]
 800180c:	4620      	mov	r0, r4
 800180e:	f7ff ffa1 	bl	8001754 <DMA_CalcBaseAndBitshift>
 8001812:	6de2      	ldr	r2, [r4, #92]	; 0x5c
 8001814:	233f      	movs	r3, #63	; 0x3f
 8001816:	4093      	lsls	r3, r2
 8001818:	6083      	str	r3, [r0, #8]
 800181a:	2000      	movs	r0, #0
 800181c:	2301      	movs	r3, #1
 800181e:	6560      	str	r0, [r4, #84]	; 0x54
 8001820:	f884 3035 	strb.w	r3, [r4, #53]	; 0x35
 8001824:	e009      	b.n	800183a <HAL_DMA_Init+0xba>
 8001826:	f7ff ff11 	bl	800164c <HAL_GetTick>
 800182a:	1b40      	subs	r0, r0, r5
 800182c:	2805      	cmp	r0, #5
 800182e:	d9b9      	bls.n	80017a4 <HAL_DMA_Init+0x24>
 8001830:	2320      	movs	r3, #32
 8001832:	6563      	str	r3, [r4, #84]	; 0x54
 8001834:	2003      	movs	r0, #3
 8001836:	f884 0035 	strb.w	r0, [r4, #53]	; 0x35
 800183a:	bd70      	pop	{r4, r5, r6, pc}
 800183c:	f5b0 5f00 	cmp.w	r0, #8192	; 0x2000
 8001840:	d113      	bne.n	800186a <HAL_DMA_Init+0xea>
 8001842:	2a03      	cmp	r2, #3
 8001844:	d8e1      	bhi.n	800180a <HAL_DMA_Init+0x8a>
 8001846:	a001      	add	r0, pc, #4	; (adr r0, 800184c <HAL_DMA_Init+0xcc>)
 8001848:	f850 f022 	ldr.w	pc, [r0, r2, lsl #2]
 800184c:	08001863 	.word	0x08001863
 8001850:	08001807 	.word	0x08001807
 8001854:	08001863 	.word	0x08001863
 8001858:	0800185d 	.word	0x0800185d
 800185c:	f1b5 7fc0 	cmp.w	r5, #25165824	; 0x1800000
 8001860:	d1d3      	bne.n	800180a <HAL_DMA_Init+0x8a>
 8001862:	2340      	movs	r3, #64	; 0x40
 8001864:	6563      	str	r3, [r4, #84]	; 0x54
 8001866:	2001      	movs	r0, #1
 8001868:	e7e5      	b.n	8001836 <HAL_DMA_Init+0xb6>
 800186a:	2a02      	cmp	r2, #2
 800186c:	d9f9      	bls.n	8001862 <HAL_DMA_Init+0xe2>
 800186e:	2a03      	cmp	r2, #3
 8001870:	e7c8      	b.n	8001804 <HAL_DMA_Init+0x84>
 8001872:	2001      	movs	r0, #1
 8001874:	e7e1      	b.n	800183a <HAL_DMA_Init+0xba>
 8001876:	bf00      	nop
 8001878:	f010803f 	.word	0xf010803f

0800187c <HAL_DMA_Start_IT>:
 800187c:	b570      	push	{r4, r5, r6, lr}
 800187e:	f890 4034 	ldrb.w	r4, [r0, #52]	; 0x34
 8001882:	2c01      	cmp	r4, #1
 8001884:	d032      	beq.n	80018ec <HAL_DMA_Start_IT+0x70>
 8001886:	2401      	movs	r4, #1
 8001888:	f880 4034 	strb.w	r4, [r0, #52]	; 0x34
 800188c:	f890 4035 	ldrb.w	r4, [r0, #53]	; 0x35
 8001890:	6d86      	ldr	r6, [r0, #88]	; 0x58
 8001892:	2c01      	cmp	r4, #1
 8001894:	f04f 0500 	mov.w	r5, #0
 8001898:	f04f 0402 	mov.w	r4, #2
 800189c:	d124      	bne.n	80018e8 <HAL_DMA_Start_IT+0x6c>
 800189e:	f880 4035 	strb.w	r4, [r0, #53]	; 0x35
 80018a2:	6804      	ldr	r4, [r0, #0]
 80018a4:	6545      	str	r5, [r0, #84]	; 0x54
 80018a6:	6825      	ldr	r5, [r4, #0]
 80018a8:	f425 2580 	bic.w	r5, r5, #262144	; 0x40000
 80018ac:	6025      	str	r5, [r4, #0]
 80018ae:	6063      	str	r3, [r4, #4]
 80018b0:	6883      	ldr	r3, [r0, #8]
 80018b2:	2b40      	cmp	r3, #64	; 0x40
 80018b4:	bf0e      	itee	eq
 80018b6:	60a2      	streq	r2, [r4, #8]
 80018b8:	60a1      	strne	r1, [r4, #8]
 80018ba:	60e2      	strne	r2, [r4, #12]
 80018bc:	6dc2      	ldr	r2, [r0, #92]	; 0x5c
 80018be:	bf08      	it	eq
 80018c0:	60e1      	streq	r1, [r4, #12]
 80018c2:	233f      	movs	r3, #63	; 0x3f
 80018c4:	4093      	lsls	r3, r2
 80018c6:	60b3      	str	r3, [r6, #8]
 80018c8:	6823      	ldr	r3, [r4, #0]
 80018ca:	f043 0316 	orr.w	r3, r3, #22
 80018ce:	6023      	str	r3, [r4, #0]
 80018d0:	6c03      	ldr	r3, [r0, #64]	; 0x40
 80018d2:	b11b      	cbz	r3, 80018dc <HAL_DMA_Start_IT+0x60>
 80018d4:	6823      	ldr	r3, [r4, #0]
 80018d6:	f043 0308 	orr.w	r3, r3, #8
 80018da:	6023      	str	r3, [r4, #0]
 80018dc:	6823      	ldr	r3, [r4, #0]
 80018de:	f043 0301 	orr.w	r3, r3, #1
 80018e2:	6023      	str	r3, [r4, #0]
 80018e4:	2000      	movs	r0, #0
 80018e6:	bd70      	pop	{r4, r5, r6, pc}
 80018e8:	f880 5034 	strb.w	r5, [r0, #52]	; 0x34
 80018ec:	2002      	movs	r0, #2
 80018ee:	e7fa      	b.n	80018e6 <HAL_DMA_Start_IT+0x6a>

080018f0 <HAL_DMA_Abort_IT>:
 80018f0:	f890 3035 	ldrb.w	r3, [r0, #53]	; 0x35
 80018f4:	2b02      	cmp	r3, #2
 80018f6:	d003      	beq.n	8001900 <HAL_DMA_Abort_IT+0x10>
 80018f8:	2380      	movs	r3, #128	; 0x80
 80018fa:	6543      	str	r3, [r0, #84]	; 0x54
 80018fc:	2001      	movs	r0, #1
 80018fe:	4770      	bx	lr
 8001900:	6802      	ldr	r2, [r0, #0]
 8001902:	2305      	movs	r3, #5
 8001904:	f880 3035 	strb.w	r3, [r0, #53]	; 0x35
 8001908:	6813      	ldr	r3, [r2, #0]
 800190a:	f023 0301 	bic.w	r3, r3, #1
 800190e:	6013      	str	r3, [r2, #0]
 8001910:	2000      	movs	r0, #0
 8001912:	4770      	bx	lr

08001914 <HAL_DMA_IRQHandler>:
 8001914:	b5f7      	push	{r0, r1, r2, r4, r5, r6, r7, lr}
 8001916:	2300      	movs	r3, #0
 8001918:	9301      	str	r3, [sp, #4]
 800191a:	4b5c      	ldr	r3, [pc, #368]	; (8001a8c <HAL_DMA_IRQHandler+0x178>)
 800191c:	6d85      	ldr	r5, [r0, #88]	; 0x58
 800191e:	681f      	ldr	r7, [r3, #0]
 8001920:	6dc3      	ldr	r3, [r0, #92]	; 0x5c
 8001922:	682e      	ldr	r6, [r5, #0]
 8001924:	2208      	movs	r2, #8
 8001926:	409a      	lsls	r2, r3
 8001928:	4232      	tst	r2, r6
 800192a:	4604      	mov	r4, r0
 800192c:	d00c      	beq.n	8001948 <HAL_DMA_IRQHandler+0x34>
 800192e:	6801      	ldr	r1, [r0, #0]
 8001930:	6808      	ldr	r0, [r1, #0]
 8001932:	0740      	lsls	r0, r0, #29
 8001934:	d508      	bpl.n	8001948 <HAL_DMA_IRQHandler+0x34>
 8001936:	6808      	ldr	r0, [r1, #0]
 8001938:	f020 0004 	bic.w	r0, r0, #4
 800193c:	6008      	str	r0, [r1, #0]
 800193e:	60aa      	str	r2, [r5, #8]
 8001940:	6d62      	ldr	r2, [r4, #84]	; 0x54
 8001942:	f042 0201 	orr.w	r2, r2, #1
 8001946:	6562      	str	r2, [r4, #84]	; 0x54
 8001948:	2201      	movs	r2, #1
 800194a:	409a      	lsls	r2, r3
 800194c:	4232      	tst	r2, r6
 800194e:	d008      	beq.n	8001962 <HAL_DMA_IRQHandler+0x4e>
 8001950:	6821      	ldr	r1, [r4, #0]
 8001952:	6949      	ldr	r1, [r1, #20]
 8001954:	0609      	lsls	r1, r1, #24
 8001956:	bf41      	itttt	mi
 8001958:	60aa      	strmi	r2, [r5, #8]
 800195a:	6d62      	ldrmi	r2, [r4, #84]	; 0x54
 800195c:	f042 0202 	orrmi.w	r2, r2, #2
 8001960:	6562      	strmi	r2, [r4, #84]	; 0x54
 8001962:	2204      	movs	r2, #4
 8001964:	409a      	lsls	r2, r3
 8001966:	4232      	tst	r2, r6
 8001968:	d008      	beq.n	800197c <HAL_DMA_IRQHandler+0x68>
 800196a:	6821      	ldr	r1, [r4, #0]
 800196c:	6809      	ldr	r1, [r1, #0]
 800196e:	0788      	lsls	r0, r1, #30
 8001970:	bf41      	itttt	mi
 8001972:	60aa      	strmi	r2, [r5, #8]
 8001974:	6d62      	ldrmi	r2, [r4, #84]	; 0x54
 8001976:	f042 0204 	orrmi.w	r2, r2, #4
 800197a:	6562      	strmi	r2, [r4, #84]	; 0x54
 800197c:	2210      	movs	r2, #16
 800197e:	409a      	lsls	r2, r3
 8001980:	4232      	tst	r2, r6
 8001982:	d010      	beq.n	80019a6 <HAL_DMA_IRQHandler+0x92>
 8001984:	6823      	ldr	r3, [r4, #0]
 8001986:	6819      	ldr	r1, [r3, #0]
 8001988:	0709      	lsls	r1, r1, #28
 800198a:	d50c      	bpl.n	80019a6 <HAL_DMA_IRQHandler+0x92>
 800198c:	60aa      	str	r2, [r5, #8]
 800198e:	681a      	ldr	r2, [r3, #0]
 8001990:	0350      	lsls	r0, r2, #13
 8001992:	d537      	bpl.n	8001a04 <HAL_DMA_IRQHandler+0xf0>
 8001994:	681b      	ldr	r3, [r3, #0]
 8001996:	0319      	lsls	r1, r3, #12
 8001998:	d401      	bmi.n	800199e <HAL_DMA_IRQHandler+0x8a>
 800199a:	6c23      	ldr	r3, [r4, #64]	; 0x40
 800199c:	e000      	b.n	80019a0 <HAL_DMA_IRQHandler+0x8c>
 800199e:	6ca3      	ldr	r3, [r4, #72]	; 0x48
 80019a0:	b10b      	cbz	r3, 80019a6 <HAL_DMA_IRQHandler+0x92>
 80019a2:	4620      	mov	r0, r4
 80019a4:	4798      	blx	r3
 80019a6:	6de1      	ldr	r1, [r4, #92]	; 0x5c
 80019a8:	2220      	movs	r2, #32
 80019aa:	408a      	lsls	r2, r1
 80019ac:	4232      	tst	r2, r6
 80019ae:	d03a      	beq.n	8001a26 <HAL_DMA_IRQHandler+0x112>
 80019b0:	6823      	ldr	r3, [r4, #0]
 80019b2:	6818      	ldr	r0, [r3, #0]
 80019b4:	06c6      	lsls	r6, r0, #27
 80019b6:	d536      	bpl.n	8001a26 <HAL_DMA_IRQHandler+0x112>
 80019b8:	60aa      	str	r2, [r5, #8]
 80019ba:	f894 2035 	ldrb.w	r2, [r4, #53]	; 0x35
 80019be:	2a05      	cmp	r2, #5
 80019c0:	681a      	ldr	r2, [r3, #0]
 80019c2:	d127      	bne.n	8001a14 <HAL_DMA_IRQHandler+0x100>
 80019c4:	f022 0216 	bic.w	r2, r2, #22
 80019c8:	601a      	str	r2, [r3, #0]
 80019ca:	695a      	ldr	r2, [r3, #20]
 80019cc:	f022 0280 	bic.w	r2, r2, #128	; 0x80
 80019d0:	615a      	str	r2, [r3, #20]
 80019d2:	6c22      	ldr	r2, [r4, #64]	; 0x40
 80019d4:	b90a      	cbnz	r2, 80019da <HAL_DMA_IRQHandler+0xc6>
 80019d6:	6ca2      	ldr	r2, [r4, #72]	; 0x48
 80019d8:	b11a      	cbz	r2, 80019e2 <HAL_DMA_IRQHandler+0xce>
 80019da:	681a      	ldr	r2, [r3, #0]
 80019dc:	f022 0208 	bic.w	r2, r2, #8
 80019e0:	601a      	str	r2, [r3, #0]
 80019e2:	233f      	movs	r3, #63	; 0x3f
 80019e4:	408b      	lsls	r3, r1
 80019e6:	60ab      	str	r3, [r5, #8]
 80019e8:	2300      	movs	r3, #0
 80019ea:	f884 3034 	strb.w	r3, [r4, #52]	; 0x34
 80019ee:	2301      	movs	r3, #1
 80019f0:	f884 3035 	strb.w	r3, [r4, #53]	; 0x35
 80019f4:	6d23      	ldr	r3, [r4, #80]	; 0x50
 80019f6:	2b00      	cmp	r3, #0
 80019f8:	d045      	beq.n	8001a86 <HAL_DMA_IRQHandler+0x172>
 80019fa:	4620      	mov	r0, r4
 80019fc:	b003      	add	sp, #12
 80019fe:	e8bd 40f0 	ldmia.w	sp!, {r4, r5, r6, r7, lr}
 8001a02:	4718      	bx	r3
 8001a04:	681a      	ldr	r2, [r3, #0]
 8001a06:	05d2      	lsls	r2, r2, #23
 8001a08:	bf5e      	ittt	pl
 8001a0a:	681a      	ldrpl	r2, [r3, #0]
 8001a0c:	f022 0208 	bicpl.w	r2, r2, #8
 8001a10:	601a      	strpl	r2, [r3, #0]
 8001a12:	e7c2      	b.n	800199a <HAL_DMA_IRQHandler+0x86>
 8001a14:	0350      	lsls	r0, r2, #13
 8001a16:	d527      	bpl.n	8001a68 <HAL_DMA_IRQHandler+0x154>
 8001a18:	681b      	ldr	r3, [r3, #0]
 8001a1a:	0319      	lsls	r1, r3, #12
 8001a1c:	d431      	bmi.n	8001a82 <HAL_DMA_IRQHandler+0x16e>
 8001a1e:	6c63      	ldr	r3, [r4, #68]	; 0x44
 8001a20:	b10b      	cbz	r3, 8001a26 <HAL_DMA_IRQHandler+0x112>
 8001a22:	4620      	mov	r0, r4
 8001a24:	4798      	blx	r3
 8001a26:	6d63      	ldr	r3, [r4, #84]	; 0x54
 8001a28:	b36b      	cbz	r3, 8001a86 <HAL_DMA_IRQHandler+0x172>
 8001a2a:	6d63      	ldr	r3, [r4, #84]	; 0x54
 8001a2c:	07da      	lsls	r2, r3, #31
 8001a2e:	d519      	bpl.n	8001a64 <HAL_DMA_IRQHandler+0x150>
 8001a30:	2305      	movs	r3, #5
 8001a32:	6822      	ldr	r2, [r4, #0]
 8001a34:	f884 3035 	strb.w	r3, [r4, #53]	; 0x35
 8001a38:	6813      	ldr	r3, [r2, #0]
 8001a3a:	f023 0301 	bic.w	r3, r3, #1
 8001a3e:	6013      	str	r3, [r2, #0]
 8001a40:	f44f 5316 	mov.w	r3, #9600	; 0x2580
 8001a44:	fbb7 f7f3 	udiv	r7, r7, r3
 8001a48:	9b01      	ldr	r3, [sp, #4]
 8001a4a:	3301      	adds	r3, #1
 8001a4c:	42bb      	cmp	r3, r7
 8001a4e:	9301      	str	r3, [sp, #4]
 8001a50:	d802      	bhi.n	8001a58 <HAL_DMA_IRQHandler+0x144>
 8001a52:	6813      	ldr	r3, [r2, #0]
 8001a54:	07db      	lsls	r3, r3, #31
 8001a56:	d4f7      	bmi.n	8001a48 <HAL_DMA_IRQHandler+0x134>
 8001a58:	2300      	movs	r3, #0
 8001a5a:	f884 3034 	strb.w	r3, [r4, #52]	; 0x34
 8001a5e:	2301      	movs	r3, #1
 8001a60:	f884 3035 	strb.w	r3, [r4, #53]	; 0x35
 8001a64:	6ce3      	ldr	r3, [r4, #76]	; 0x4c
 8001a66:	e7c6      	b.n	80019f6 <HAL_DMA_IRQHandler+0xe2>
 8001a68:	681a      	ldr	r2, [r3, #0]
 8001a6a:	f412 7280 	ands.w	r2, r2, #256	; 0x100
 8001a6e:	d108      	bne.n	8001a82 <HAL_DMA_IRQHandler+0x16e>
 8001a70:	6819      	ldr	r1, [r3, #0]
 8001a72:	f021 0110 	bic.w	r1, r1, #16
 8001a76:	6019      	str	r1, [r3, #0]
 8001a78:	2301      	movs	r3, #1
 8001a7a:	f884 2034 	strb.w	r2, [r4, #52]	; 0x34
 8001a7e:	f884 3035 	strb.w	r3, [r4, #53]	; 0x35
 8001a82:	6be3      	ldr	r3, [r4, #60]	; 0x3c
 8001a84:	e7cc      	b.n	8001a20 <HAL_DMA_IRQHandler+0x10c>
 8001a86:	b003      	add	sp, #12
 8001a88:	bdf0      	pop	{r4, r5, r6, r7, pc}
 8001a8a:	bf00      	nop
 8001a8c:	20000000 	.word	0x20000000

08001a90 <HAL_GPIO_Init>:
 8001a90:	e92d 4ff0 	stmdb	sp!, {r4, r5, r6, r7, r8, r9, sl, fp, lr}
 8001a94:	b085      	sub	sp, #20
 8001a96:	680b      	ldr	r3, [r1, #0]
 8001a98:	f8df 818c 	ldr.w	r8, [pc, #396]	; 8001c28 <HAL_GPIO_Init+0x198>
 8001a9c:	4a60      	ldr	r2, [pc, #384]	; (8001c20 <HAL_GPIO_Init+0x190>)
 8001a9e:	9301      	str	r3, [sp, #4]
 8001aa0:	f04f 0901 	mov.w	r9, #1
 8001aa4:	2300      	movs	r3, #0
 8001aa6:	9d01      	ldr	r5, [sp, #4]
 8001aa8:	fa09 f403 	lsl.w	r4, r9, r3
 8001aac:	4025      	ands	r5, r4
 8001aae:	42ac      	cmp	r4, r5
 8001ab0:	f040 80a6 	bne.w	8001c00 <HAL_GPIO_Init+0x170>
 8001ab4:	684c      	ldr	r4, [r1, #4]
 8001ab6:	f024 0c10 	bic.w	ip, r4, #16
 8001aba:	ea4f 0e43 	mov.w	lr, r3, lsl #1
 8001abe:	2603      	movs	r6, #3
 8001ac0:	f10c 37ff 	add.w	r7, ip, #4294967295	; 0xffffffff
 8001ac4:	fa06 f60e 	lsl.w	r6, r6, lr
 8001ac8:	2f01      	cmp	r7, #1
 8001aca:	ea6f 0606 	mvn.w	r6, r6
 8001ace:	d811      	bhi.n	8001af4 <HAL_GPIO_Init+0x64>
 8001ad0:	6887      	ldr	r7, [r0, #8]
 8001ad2:	ea07 0a06 	and.w	sl, r7, r6
 8001ad6:	68cf      	ldr	r7, [r1, #12]
 8001ad8:	fa07 f70e 	lsl.w	r7, r7, lr
 8001adc:	ea47 070a 	orr.w	r7, r7, sl
 8001ae0:	6087      	str	r7, [r0, #8]
 8001ae2:	6847      	ldr	r7, [r0, #4]
 8001ae4:	ea27 0a05 	bic.w	sl, r7, r5
 8001ae8:	f3c4 1700 	ubfx	r7, r4, #4, #1
 8001aec:	409f      	lsls	r7, r3
 8001aee:	ea47 070a 	orr.w	r7, r7, sl
 8001af2:	6047      	str	r7, [r0, #4]
 8001af4:	68c7      	ldr	r7, [r0, #12]
 8001af6:	ea07 0a06 	and.w	sl, r7, r6
 8001afa:	688f      	ldr	r7, [r1, #8]
 8001afc:	fa07 f70e 	lsl.w	r7, r7, lr
 8001b00:	ea47 070a 	orr.w	r7, r7, sl
 8001b04:	f1bc 0f02 	cmp.w	ip, #2
 8001b08:	60c7      	str	r7, [r0, #12]
 8001b0a:	d116      	bne.n	8001b3a <HAL_GPIO_Init+0xaa>
 8001b0c:	ea4f 0ad3 	mov.w	sl, r3, lsr #3
 8001b10:	eb00 0a8a 	add.w	sl, r0, sl, lsl #2
 8001b14:	f003 0b07 	and.w	fp, r3, #7
 8001b18:	f8da 7020 	ldr.w	r7, [sl, #32]
 8001b1c:	ea4f 0b8b 	mov.w	fp, fp, lsl #2
 8001b20:	f04f 0c0f 	mov.w	ip, #15
 8001b24:	fa0c fc0b 	lsl.w	ip, ip, fp
 8001b28:	ea27 0c0c 	bic.w	ip, r7, ip
 8001b2c:	690f      	ldr	r7, [r1, #16]
 8001b2e:	fa07 f70b 	lsl.w	r7, r7, fp
 8001b32:	ea47 070c 	orr.w	r7, r7, ip
 8001b36:	f8ca 7020 	str.w	r7, [sl, #32]
 8001b3a:	6807      	ldr	r7, [r0, #0]
 8001b3c:	403e      	ands	r6, r7
 8001b3e:	f004 0703 	and.w	r7, r4, #3
 8001b42:	fa07 fe0e 	lsl.w	lr, r7, lr
 8001b46:	ea4e 0606 	orr.w	r6, lr, r6
 8001b4a:	6006      	str	r6, [r0, #0]
 8001b4c:	00e6      	lsls	r6, r4, #3
 8001b4e:	d557      	bpl.n	8001c00 <HAL_GPIO_Init+0x170>
 8001b50:	f04f 0b00 	mov.w	fp, #0
 8001b54:	f8cd b00c 	str.w	fp, [sp, #12]
 8001b58:	f8d8 7044 	ldr.w	r7, [r8, #68]	; 0x44
 8001b5c:	4e31      	ldr	r6, [pc, #196]	; (8001c24 <HAL_GPIO_Init+0x194>)
 8001b5e:	f447 4780 	orr.w	r7, r7, #16384	; 0x4000
 8001b62:	f8c8 7044 	str.w	r7, [r8, #68]	; 0x44
 8001b66:	f8d8 7044 	ldr.w	r7, [r8, #68]	; 0x44
 8001b6a:	f407 4780 	and.w	r7, r7, #16384	; 0x4000
 8001b6e:	9703      	str	r7, [sp, #12]
 8001b70:	9f03      	ldr	r7, [sp, #12]
 8001b72:	f023 0703 	bic.w	r7, r3, #3
 8001b76:	f107 4780 	add.w	r7, r7, #1073741824	; 0x40000000
 8001b7a:	f507 379c 	add.w	r7, r7, #79872	; 0x13800
 8001b7e:	f003 0e03 	and.w	lr, r3, #3
 8001b82:	f8d7 a008 	ldr.w	sl, [r7, #8]
 8001b86:	ea4f 0e8e 	mov.w	lr, lr, lsl #2
 8001b8a:	f04f 0c0f 	mov.w	ip, #15
 8001b8e:	fa0c fc0e 	lsl.w	ip, ip, lr
 8001b92:	42b0      	cmp	r0, r6
 8001b94:	ea2a 0c0c 	bic.w	ip, sl, ip
 8001b98:	d039      	beq.n	8001c0e <HAL_GPIO_Init+0x17e>
 8001b9a:	f506 6680 	add.w	r6, r6, #1024	; 0x400
 8001b9e:	42b0      	cmp	r0, r6
 8001ba0:	d037      	beq.n	8001c12 <HAL_GPIO_Init+0x182>
 8001ba2:	f506 6680 	add.w	r6, r6, #1024	; 0x400
 8001ba6:	42b0      	cmp	r0, r6
 8001ba8:	d035      	beq.n	8001c16 <HAL_GPIO_Init+0x186>
 8001baa:	f506 6680 	add.w	r6, r6, #1024	; 0x400
 8001bae:	42b0      	cmp	r0, r6
 8001bb0:	d033      	beq.n	8001c1a <HAL_GPIO_Init+0x18a>
 8001bb2:	f506 6680 	add.w	r6, r6, #1024	; 0x400
 8001bb6:	42b0      	cmp	r0, r6
 8001bb8:	bf14      	ite	ne
 8001bba:	2607      	movne	r6, #7
 8001bbc:	2604      	moveq	r6, #4
 8001bbe:	fa06 f60e 	lsl.w	r6, r6, lr
 8001bc2:	ea46 060c 	orr.w	r6, r6, ip
 8001bc6:	60be      	str	r6, [r7, #8]
 8001bc8:	6816      	ldr	r6, [r2, #0]
 8001bca:	43ef      	mvns	r7, r5
 8001bcc:	f414 3f80 	tst.w	r4, #65536	; 0x10000
 8001bd0:	bf0c      	ite	eq
 8001bd2:	403e      	andeq	r6, r7
 8001bd4:	432e      	orrne	r6, r5
 8001bd6:	6016      	str	r6, [r2, #0]
 8001bd8:	6856      	ldr	r6, [r2, #4]
 8001bda:	f414 3f00 	tst.w	r4, #131072	; 0x20000
 8001bde:	bf0c      	ite	eq
 8001be0:	403e      	andeq	r6, r7
 8001be2:	432e      	orrne	r6, r5
 8001be4:	6056      	str	r6, [r2, #4]
 8001be6:	6896      	ldr	r6, [r2, #8]
 8001be8:	f414 1f80 	tst.w	r4, #1048576	; 0x100000
 8001bec:	bf0c      	ite	eq
 8001bee:	403e      	andeq	r6, r7
 8001bf0:	432e      	orrne	r6, r5
 8001bf2:	6096      	str	r6, [r2, #8]
 8001bf4:	68d6      	ldr	r6, [r2, #12]
 8001bf6:	02a4      	lsls	r4, r4, #10
 8001bf8:	bf54      	ite	pl
 8001bfa:	403e      	andpl	r6, r7
 8001bfc:	432e      	orrmi	r6, r5
 8001bfe:	60d6      	str	r6, [r2, #12]
 8001c00:	3301      	adds	r3, #1
 8001c02:	2b10      	cmp	r3, #16
 8001c04:	f47f af4f 	bne.w	8001aa6 <HAL_GPIO_Init+0x16>
 8001c08:	b005      	add	sp, #20
 8001c0a:	e8bd 8ff0 	ldmia.w	sp!, {r4, r5, r6, r7, r8, r9, sl, fp, pc}
 8001c0e:	465e      	mov	r6, fp
 8001c10:	e7d5      	b.n	8001bbe <HAL_GPIO_Init+0x12e>
 8001c12:	2601      	movs	r6, #1
 8001c14:	e7d3      	b.n	8001bbe <HAL_GPIO_Init+0x12e>
 8001c16:	2602      	movs	r6, #2
 8001c18:	e7d1      	b.n	8001bbe <HAL_GPIO_Init+0x12e>
 8001c1a:	2603      	movs	r6, #3
 8001c1c:	e7cf      	b.n	8001bbe <HAL_GPIO_Init+0x12e>
 8001c1e:	bf00      	nop
 8001c20:	40013c00 	.word	0x40013c00
 8001c24:	40020000 	.word	0x40020000
 8001c28:	40023800 	.word	0x40023800

08001c2c <HAL_GPIO_WritePin>:
 8001c2c:	b10a      	cbz	r2, 8001c32 <HAL_GPIO_WritePin+0x6>
 8001c2e:	6181      	str	r1, [r0, #24]
 8001c30:	4770      	bx	lr
 8001c32:	0409      	lsls	r1, r1, #16
 8001c34:	e7fb      	b.n	8001c2e <HAL_GPIO_WritePin+0x2>

08001c36 <HAL_GPIO_TogglePin>:
 8001c36:	6943      	ldr	r3, [r0, #20]
 8001c38:	ea31 0303 	bics.w	r3, r1, r3
 8001c3c:	bf08      	it	eq
 8001c3e:	0409      	lsleq	r1, r1, #16
 8001c40:	6181      	str	r1, [r0, #24]
 8001c42:	4770      	bx	lr

08001c44 <HAL_RCC_OscConfig>:
 8001c44:	e92d 41f3 	stmdb	sp!, {r0, r1, r4, r5, r6, r7, r8, lr}
 8001c48:	4604      	mov	r4, r0
 8001c4a:	b908      	cbnz	r0, 8001c50 <HAL_RCC_OscConfig+0xc>
 8001c4c:	2001      	movs	r0, #1
 8001c4e:	e03f      	b.n	8001cd0 <HAL_RCC_OscConfig+0x8c>
 8001c50:	6803      	ldr	r3, [r0, #0]
 8001c52:	07dd      	lsls	r5, r3, #31
 8001c54:	d410      	bmi.n	8001c78 <HAL_RCC_OscConfig+0x34>
 8001c56:	6823      	ldr	r3, [r4, #0]
 8001c58:	0798      	lsls	r0, r3, #30
 8001c5a:	d45a      	bmi.n	8001d12 <HAL_RCC_OscConfig+0xce>
 8001c5c:	6823      	ldr	r3, [r4, #0]
 8001c5e:	071a      	lsls	r2, r3, #28
 8001c60:	f100 809c 	bmi.w	8001d9c <HAL_RCC_OscConfig+0x158>
 8001c64:	6823      	ldr	r3, [r4, #0]
 8001c66:	075b      	lsls	r3, r3, #29
 8001c68:	f100 80ba 	bmi.w	8001de0 <HAL_RCC_OscConfig+0x19c>
 8001c6c:	69a0      	ldr	r0, [r4, #24]
 8001c6e:	2800      	cmp	r0, #0
 8001c70:	f040 811b 	bne.w	8001eaa <HAL_RCC_OscConfig+0x266>
 8001c74:	2000      	movs	r0, #0
 8001c76:	e02b      	b.n	8001cd0 <HAL_RCC_OscConfig+0x8c>
 8001c78:	4ba7      	ldr	r3, [pc, #668]	; (8001f18 <HAL_RCC_OscConfig+0x2d4>)
 8001c7a:	689a      	ldr	r2, [r3, #8]
 8001c7c:	f002 020c 	and.w	r2, r2, #12
 8001c80:	2a04      	cmp	r2, #4
 8001c82:	d007      	beq.n	8001c94 <HAL_RCC_OscConfig+0x50>
 8001c84:	689a      	ldr	r2, [r3, #8]
 8001c86:	f002 020c 	and.w	r2, r2, #12
 8001c8a:	2a08      	cmp	r2, #8
 8001c8c:	d10a      	bne.n	8001ca4 <HAL_RCC_OscConfig+0x60>
 8001c8e:	685b      	ldr	r3, [r3, #4]
 8001c90:	0259      	lsls	r1, r3, #9
 8001c92:	d507      	bpl.n	8001ca4 <HAL_RCC_OscConfig+0x60>
 8001c94:	4ba0      	ldr	r3, [pc, #640]	; (8001f18 <HAL_RCC_OscConfig+0x2d4>)
 8001c96:	681b      	ldr	r3, [r3, #0]
 8001c98:	039a      	lsls	r2, r3, #14
 8001c9a:	d5dc      	bpl.n	8001c56 <HAL_RCC_OscConfig+0x12>
 8001c9c:	6863      	ldr	r3, [r4, #4]
 8001c9e:	2b00      	cmp	r3, #0
 8001ca0:	d1d9      	bne.n	8001c56 <HAL_RCC_OscConfig+0x12>
 8001ca2:	e7d3      	b.n	8001c4c <HAL_RCC_OscConfig+0x8>
 8001ca4:	6863      	ldr	r3, [r4, #4]
 8001ca6:	4d9c      	ldr	r5, [pc, #624]	; (8001f18 <HAL_RCC_OscConfig+0x2d4>)
 8001ca8:	f5b3 3f80 	cmp.w	r3, #65536	; 0x10000
 8001cac:	d113      	bne.n	8001cd6 <HAL_RCC_OscConfig+0x92>
 8001cae:	682b      	ldr	r3, [r5, #0]
 8001cb0:	f443 3380 	orr.w	r3, r3, #65536	; 0x10000
 8001cb4:	602b      	str	r3, [r5, #0]
 8001cb6:	f7ff fcc9 	bl	800164c <HAL_GetTick>
 8001cba:	4d97      	ldr	r5, [pc, #604]	; (8001f18 <HAL_RCC_OscConfig+0x2d4>)
 8001cbc:	4606      	mov	r6, r0
 8001cbe:	682b      	ldr	r3, [r5, #0]
 8001cc0:	039b      	lsls	r3, r3, #14
 8001cc2:	d4c8      	bmi.n	8001c56 <HAL_RCC_OscConfig+0x12>
 8001cc4:	f7ff fcc2 	bl	800164c <HAL_GetTick>
 8001cc8:	1b80      	subs	r0, r0, r6
 8001cca:	2864      	cmp	r0, #100	; 0x64
 8001ccc:	d9f7      	bls.n	8001cbe <HAL_RCC_OscConfig+0x7a>
 8001cce:	2003      	movs	r0, #3
 8001cd0:	b002      	add	sp, #8
 8001cd2:	e8bd 81f0 	ldmia.w	sp!, {r4, r5, r6, r7, r8, pc}
 8001cd6:	f5b3 2fa0 	cmp.w	r3, #327680	; 0x50000
 8001cda:	d104      	bne.n	8001ce6 <HAL_RCC_OscConfig+0xa2>
 8001cdc:	682b      	ldr	r3, [r5, #0]
 8001cde:	f443 2380 	orr.w	r3, r3, #262144	; 0x40000
 8001ce2:	602b      	str	r3, [r5, #0]
 8001ce4:	e7e3      	b.n	8001cae <HAL_RCC_OscConfig+0x6a>
 8001ce6:	682a      	ldr	r2, [r5, #0]
 8001ce8:	f422 3280 	bic.w	r2, r2, #65536	; 0x10000
 8001cec:	602a      	str	r2, [r5, #0]
 8001cee:	682a      	ldr	r2, [r5, #0]
 8001cf0:	f422 2280 	bic.w	r2, r2, #262144	; 0x40000
 8001cf4:	602a      	str	r2, [r5, #0]
 8001cf6:	2b00      	cmp	r3, #0
 8001cf8:	d1dd      	bne.n	8001cb6 <HAL_RCC_OscConfig+0x72>
 8001cfa:	f7ff fca7 	bl	800164c <HAL_GetTick>
 8001cfe:	4606      	mov	r6, r0
 8001d00:	682b      	ldr	r3, [r5, #0]
 8001d02:	039f      	lsls	r7, r3, #14
 8001d04:	d5a7      	bpl.n	8001c56 <HAL_RCC_OscConfig+0x12>
 8001d06:	f7ff fca1 	bl	800164c <HAL_GetTick>
 8001d0a:	1b80      	subs	r0, r0, r6
 8001d0c:	2864      	cmp	r0, #100	; 0x64
 8001d0e:	d9f7      	bls.n	8001d00 <HAL_RCC_OscConfig+0xbc>
 8001d10:	e7dd      	b.n	8001cce <HAL_RCC_OscConfig+0x8a>
 8001d12:	4b81      	ldr	r3, [pc, #516]	; (8001f18 <HAL_RCC_OscConfig+0x2d4>)
 8001d14:	689a      	ldr	r2, [r3, #8]
 8001d16:	f012 0f0c 	tst.w	r2, #12
 8001d1a:	d007      	beq.n	8001d2c <HAL_RCC_OscConfig+0xe8>
 8001d1c:	689a      	ldr	r2, [r3, #8]
 8001d1e:	f002 020c 	and.w	r2, r2, #12
 8001d22:	2a08      	cmp	r2, #8
 8001d24:	d111      	bne.n	8001d4a <HAL_RCC_OscConfig+0x106>
 8001d26:	685b      	ldr	r3, [r3, #4]
 8001d28:	025e      	lsls	r6, r3, #9
 8001d2a:	d40e      	bmi.n	8001d4a <HAL_RCC_OscConfig+0x106>
 8001d2c:	4b7a      	ldr	r3, [pc, #488]	; (8001f18 <HAL_RCC_OscConfig+0x2d4>)
 8001d2e:	681a      	ldr	r2, [r3, #0]
 8001d30:	0795      	lsls	r5, r2, #30
 8001d32:	d502      	bpl.n	8001d3a <HAL_RCC_OscConfig+0xf6>
 8001d34:	68e2      	ldr	r2, [r4, #12]
 8001d36:	2a01      	cmp	r2, #1
 8001d38:	d188      	bne.n	8001c4c <HAL_RCC_OscConfig+0x8>
 8001d3a:	681a      	ldr	r2, [r3, #0]
 8001d3c:	6921      	ldr	r1, [r4, #16]
 8001d3e:	f022 02f8 	bic.w	r2, r2, #248	; 0xf8
 8001d42:	ea42 02c1 	orr.w	r2, r2, r1, lsl #3
 8001d46:	601a      	str	r2, [r3, #0]
 8001d48:	e788      	b.n	8001c5c <HAL_RCC_OscConfig+0x18>
 8001d4a:	68e2      	ldr	r2, [r4, #12]
 8001d4c:	4b73      	ldr	r3, [pc, #460]	; (8001f1c <HAL_RCC_OscConfig+0x2d8>)
 8001d4e:	b1b2      	cbz	r2, 8001d7e <HAL_RCC_OscConfig+0x13a>
 8001d50:	2201      	movs	r2, #1
 8001d52:	601a      	str	r2, [r3, #0]
 8001d54:	f7ff fc7a 	bl	800164c <HAL_GetTick>
 8001d58:	4d6f      	ldr	r5, [pc, #444]	; (8001f18 <HAL_RCC_OscConfig+0x2d4>)
 8001d5a:	4606      	mov	r6, r0
 8001d5c:	682b      	ldr	r3, [r5, #0]
 8001d5e:	0798      	lsls	r0, r3, #30
 8001d60:	d507      	bpl.n	8001d72 <HAL_RCC_OscConfig+0x12e>
 8001d62:	682b      	ldr	r3, [r5, #0]
 8001d64:	6922      	ldr	r2, [r4, #16]
 8001d66:	f023 03f8 	bic.w	r3, r3, #248	; 0xf8
 8001d6a:	ea43 03c2 	orr.w	r3, r3, r2, lsl #3
 8001d6e:	602b      	str	r3, [r5, #0]
 8001d70:	e774      	b.n	8001c5c <HAL_RCC_OscConfig+0x18>
 8001d72:	f7ff fc6b 	bl	800164c <HAL_GetTick>
 8001d76:	1b80      	subs	r0, r0, r6
 8001d78:	2802      	cmp	r0, #2
 8001d7a:	d9ef      	bls.n	8001d5c <HAL_RCC_OscConfig+0x118>
 8001d7c:	e7a7      	b.n	8001cce <HAL_RCC_OscConfig+0x8a>
 8001d7e:	601a      	str	r2, [r3, #0]
 8001d80:	f7ff fc64 	bl	800164c <HAL_GetTick>
 8001d84:	4d64      	ldr	r5, [pc, #400]	; (8001f18 <HAL_RCC_OscConfig+0x2d4>)
 8001d86:	4606      	mov	r6, r0
 8001d88:	682b      	ldr	r3, [r5, #0]
 8001d8a:	0799      	lsls	r1, r3, #30
 8001d8c:	f57f af66 	bpl.w	8001c5c <HAL_RCC_OscConfig+0x18>
 8001d90:	f7ff fc5c 	bl	800164c <HAL_GetTick>
 8001d94:	1b80      	subs	r0, r0, r6
 8001d96:	2802      	cmp	r0, #2
 8001d98:	d9f6      	bls.n	8001d88 <HAL_RCC_OscConfig+0x144>
 8001d9a:	e798      	b.n	8001cce <HAL_RCC_OscConfig+0x8a>
 8001d9c:	6962      	ldr	r2, [r4, #20]
 8001d9e:	4b60      	ldr	r3, [pc, #384]	; (8001f20 <HAL_RCC_OscConfig+0x2dc>)
 8001da0:	b17a      	cbz	r2, 8001dc2 <HAL_RCC_OscConfig+0x17e>
 8001da2:	2201      	movs	r2, #1
 8001da4:	601a      	str	r2, [r3, #0]
 8001da6:	f7ff fc51 	bl	800164c <HAL_GetTick>
 8001daa:	4d5b      	ldr	r5, [pc, #364]	; (8001f18 <HAL_RCC_OscConfig+0x2d4>)
 8001dac:	4606      	mov	r6, r0
 8001dae:	6f6b      	ldr	r3, [r5, #116]	; 0x74
 8001db0:	079f      	lsls	r7, r3, #30
 8001db2:	f53f af57 	bmi.w	8001c64 <HAL_RCC_OscConfig+0x20>
 8001db6:	f7ff fc49 	bl	800164c <HAL_GetTick>
 8001dba:	1b80      	subs	r0, r0, r6
 8001dbc:	2802      	cmp	r0, #2
 8001dbe:	d9f6      	bls.n	8001dae <HAL_RCC_OscConfig+0x16a>
 8001dc0:	e785      	b.n	8001cce <HAL_RCC_OscConfig+0x8a>
 8001dc2:	601a      	str	r2, [r3, #0]
 8001dc4:	f7ff fc42 	bl	800164c <HAL_GetTick>
 8001dc8:	4d53      	ldr	r5, [pc, #332]	; (8001f18 <HAL_RCC_OscConfig+0x2d4>)
 8001dca:	4606      	mov	r6, r0
 8001dcc:	6f6b      	ldr	r3, [r5, #116]	; 0x74
 8001dce:	0798      	lsls	r0, r3, #30
 8001dd0:	f57f af48 	bpl.w	8001c64 <HAL_RCC_OscConfig+0x20>
 8001dd4:	f7ff fc3a 	bl	800164c <HAL_GetTick>
 8001dd8:	1b80      	subs	r0, r0, r6
 8001dda:	2802      	cmp	r0, #2
 8001ddc:	d9f6      	bls.n	8001dcc <HAL_RCC_OscConfig+0x188>
 8001dde:	e776      	b.n	8001cce <HAL_RCC_OscConfig+0x8a>
 8001de0:	4b4d      	ldr	r3, [pc, #308]	; (8001f18 <HAL_RCC_OscConfig+0x2d4>)
 8001de2:	6c1a      	ldr	r2, [r3, #64]	; 0x40
 8001de4:	f012 5280 	ands.w	r2, r2, #268435456	; 0x10000000
 8001de8:	d128      	bne.n	8001e3c <HAL_RCC_OscConfig+0x1f8>
 8001dea:	9201      	str	r2, [sp, #4]
 8001dec:	6c1a      	ldr	r2, [r3, #64]	; 0x40
 8001dee:	f042 5280 	orr.w	r2, r2, #268435456	; 0x10000000
 8001df2:	641a      	str	r2, [r3, #64]	; 0x40
 8001df4:	6c1b      	ldr	r3, [r3, #64]	; 0x40
 8001df6:	f003 5380 	and.w	r3, r3, #268435456	; 0x10000000
 8001dfa:	9301      	str	r3, [sp, #4]
 8001dfc:	9b01      	ldr	r3, [sp, #4]
 8001dfe:	2601      	movs	r6, #1
 8001e00:	4d48      	ldr	r5, [pc, #288]	; (8001f24 <HAL_RCC_OscConfig+0x2e0>)
 8001e02:	682b      	ldr	r3, [r5, #0]
 8001e04:	05d9      	lsls	r1, r3, #23
 8001e06:	d51b      	bpl.n	8001e40 <HAL_RCC_OscConfig+0x1fc>
 8001e08:	68a3      	ldr	r3, [r4, #8]
 8001e0a:	4d43      	ldr	r5, [pc, #268]	; (8001f18 <HAL_RCC_OscConfig+0x2d4>)
 8001e0c:	2b01      	cmp	r3, #1
 8001e0e:	d127      	bne.n	8001e60 <HAL_RCC_OscConfig+0x21c>
 8001e10:	6f2b      	ldr	r3, [r5, #112]	; 0x70
 8001e12:	f043 0301 	orr.w	r3, r3, #1
 8001e16:	672b      	str	r3, [r5, #112]	; 0x70
 8001e18:	f7ff fc18 	bl	800164c <HAL_GetTick>
 8001e1c:	4d3e      	ldr	r5, [pc, #248]	; (8001f18 <HAL_RCC_OscConfig+0x2d4>)
 8001e1e:	4607      	mov	r7, r0
 8001e20:	f241 3888 	movw	r8, #5000	; 0x1388
 8001e24:	6f2b      	ldr	r3, [r5, #112]	; 0x70
 8001e26:	079b      	lsls	r3, r3, #30
 8001e28:	d539      	bpl.n	8001e9e <HAL_RCC_OscConfig+0x25a>
 8001e2a:	2e00      	cmp	r6, #0
 8001e2c:	f43f af1e 	beq.w	8001c6c <HAL_RCC_OscConfig+0x28>
 8001e30:	4a39      	ldr	r2, [pc, #228]	; (8001f18 <HAL_RCC_OscConfig+0x2d4>)
 8001e32:	6c13      	ldr	r3, [r2, #64]	; 0x40
 8001e34:	f023 5380 	bic.w	r3, r3, #268435456	; 0x10000000
 8001e38:	6413      	str	r3, [r2, #64]	; 0x40
 8001e3a:	e717      	b.n	8001c6c <HAL_RCC_OscConfig+0x28>
 8001e3c:	2600      	movs	r6, #0
 8001e3e:	e7df      	b.n	8001e00 <HAL_RCC_OscConfig+0x1bc>
 8001e40:	682b      	ldr	r3, [r5, #0]
 8001e42:	f443 7380 	orr.w	r3, r3, #256	; 0x100
 8001e46:	602b      	str	r3, [r5, #0]
 8001e48:	f7ff fc00 	bl	800164c <HAL_GetTick>
 8001e4c:	4607      	mov	r7, r0
 8001e4e:	682b      	ldr	r3, [r5, #0]
 8001e50:	05da      	lsls	r2, r3, #23
 8001e52:	d4d9      	bmi.n	8001e08 <HAL_RCC_OscConfig+0x1c4>
 8001e54:	f7ff fbfa 	bl	800164c <HAL_GetTick>
 8001e58:	1bc0      	subs	r0, r0, r7
 8001e5a:	2802      	cmp	r0, #2
 8001e5c:	d9f7      	bls.n	8001e4e <HAL_RCC_OscConfig+0x20a>
 8001e5e:	e736      	b.n	8001cce <HAL_RCC_OscConfig+0x8a>
 8001e60:	2b05      	cmp	r3, #5
 8001e62:	d104      	bne.n	8001e6e <HAL_RCC_OscConfig+0x22a>
 8001e64:	6f2b      	ldr	r3, [r5, #112]	; 0x70
 8001e66:	f043 0304 	orr.w	r3, r3, #4
 8001e6a:	672b      	str	r3, [r5, #112]	; 0x70
 8001e6c:	e7d0      	b.n	8001e10 <HAL_RCC_OscConfig+0x1cc>
 8001e6e:	6f2a      	ldr	r2, [r5, #112]	; 0x70
 8001e70:	f022 0201 	bic.w	r2, r2, #1
 8001e74:	672a      	str	r2, [r5, #112]	; 0x70
 8001e76:	6f2a      	ldr	r2, [r5, #112]	; 0x70
 8001e78:	f022 0204 	bic.w	r2, r2, #4
 8001e7c:	672a      	str	r2, [r5, #112]	; 0x70
 8001e7e:	2b00      	cmp	r3, #0
 8001e80:	d1ca      	bne.n	8001e18 <HAL_RCC_OscConfig+0x1d4>
 8001e82:	f7ff fbe3 	bl	800164c <HAL_GetTick>
 8001e86:	f241 3888 	movw	r8, #5000	; 0x1388
 8001e8a:	4607      	mov	r7, r0
 8001e8c:	6f2b      	ldr	r3, [r5, #112]	; 0x70
 8001e8e:	0798      	lsls	r0, r3, #30
 8001e90:	d5cb      	bpl.n	8001e2a <HAL_RCC_OscConfig+0x1e6>
 8001e92:	f7ff fbdb 	bl	800164c <HAL_GetTick>
 8001e96:	1bc0      	subs	r0, r0, r7
 8001e98:	4540      	cmp	r0, r8
 8001e9a:	d9f7      	bls.n	8001e8c <HAL_RCC_OscConfig+0x248>
 8001e9c:	e717      	b.n	8001cce <HAL_RCC_OscConfig+0x8a>
 8001e9e:	f7ff fbd5 	bl	800164c <HAL_GetTick>
 8001ea2:	1bc0      	subs	r0, r0, r7
 8001ea4:	4540      	cmp	r0, r8
 8001ea6:	d9bd      	bls.n	8001e24 <HAL_RCC_OscConfig+0x1e0>
 8001ea8:	e711      	b.n	8001cce <HAL_RCC_OscConfig+0x8a>
 8001eaa:	4d1b      	ldr	r5, [pc, #108]	; (8001f18 <HAL_RCC_OscConfig+0x2d4>)
 8001eac:	68ab      	ldr	r3, [r5, #8]
 8001eae:	f003 030c 	and.w	r3, r3, #12
 8001eb2:	2b08      	cmp	r3, #8
 8001eb4:	d047      	beq.n	8001f46 <HAL_RCC_OscConfig+0x302>
 8001eb6:	4e1c      	ldr	r6, [pc, #112]	; (8001f28 <HAL_RCC_OscConfig+0x2e4>)
 8001eb8:	2300      	movs	r3, #0
 8001eba:	2802      	cmp	r0, #2
 8001ebc:	6033      	str	r3, [r6, #0]
 8001ebe:	d135      	bne.n	8001f2c <HAL_RCC_OscConfig+0x2e8>
 8001ec0:	f7ff fbc4 	bl	800164c <HAL_GetTick>
 8001ec4:	4607      	mov	r7, r0
 8001ec6:	682b      	ldr	r3, [r5, #0]
 8001ec8:	0199      	lsls	r1, r3, #6
 8001eca:	d41e      	bmi.n	8001f0a <HAL_RCC_OscConfig+0x2c6>
 8001ecc:	e9d4 3207 	ldrd	r3, r2, [r4, #28]
 8001ed0:	4313      	orrs	r3, r2
 8001ed2:	6a62      	ldr	r2, [r4, #36]	; 0x24
 8001ed4:	ea43 1382 	orr.w	r3, r3, r2, lsl #6
 8001ed8:	6ae2      	ldr	r2, [r4, #44]	; 0x2c
 8001eda:	ea43 6302 	orr.w	r3, r3, r2, lsl #24
 8001ede:	6aa2      	ldr	r2, [r4, #40]	; 0x28
 8001ee0:	4c0d      	ldr	r4, [pc, #52]	; (8001f18 <HAL_RCC_OscConfig+0x2d4>)
 8001ee2:	0852      	lsrs	r2, r2, #1
 8001ee4:	3a01      	subs	r2, #1
 8001ee6:	ea43 4302 	orr.w	r3, r3, r2, lsl #16
 8001eea:	606b      	str	r3, [r5, #4]
 8001eec:	2301      	movs	r3, #1
 8001eee:	6033      	str	r3, [r6, #0]
 8001ef0:	f7ff fbac 	bl	800164c <HAL_GetTick>
 8001ef4:	4605      	mov	r5, r0
 8001ef6:	6823      	ldr	r3, [r4, #0]
 8001ef8:	019a      	lsls	r2, r3, #6
 8001efa:	f53f aebb 	bmi.w	8001c74 <HAL_RCC_OscConfig+0x30>
 8001efe:	f7ff fba5 	bl	800164c <HAL_GetTick>
 8001f02:	1b40      	subs	r0, r0, r5
 8001f04:	2802      	cmp	r0, #2
 8001f06:	d9f6      	bls.n	8001ef6 <HAL_RCC_OscConfig+0x2b2>
 8001f08:	e6e1      	b.n	8001cce <HAL_RCC_OscConfig+0x8a>
 8001f0a:	f7ff fb9f 	bl	800164c <HAL_GetTick>
 8001f0e:	1bc0      	subs	r0, r0, r7
 8001f10:	2802      	cmp	r0, #2
 8001f12:	d9d8      	bls.n	8001ec6 <HAL_RCC_OscConfig+0x282>
 8001f14:	e6db      	b.n	8001cce <HAL_RCC_OscConfig+0x8a>
 8001f16:	bf00      	nop
 8001f18:	40023800 	.word	0x40023800
 8001f1c:	42470000 	.word	0x42470000
 8001f20:	42470e80 	.word	0x42470e80
 8001f24:	40007000 	.word	0x40007000
 8001f28:	42470060 	.word	0x42470060
 8001f2c:	f7ff fb8e 	bl	800164c <HAL_GetTick>
 8001f30:	4604      	mov	r4, r0
 8001f32:	682b      	ldr	r3, [r5, #0]
 8001f34:	019b      	lsls	r3, r3, #6
 8001f36:	f57f ae9d 	bpl.w	8001c74 <HAL_RCC_OscConfig+0x30>
 8001f3a:	f7ff fb87 	bl	800164c <HAL_GetTick>
 8001f3e:	1b00      	subs	r0, r0, r4
 8001f40:	2802      	cmp	r0, #2
 8001f42:	d9f6      	bls.n	8001f32 <HAL_RCC_OscConfig+0x2ee>
 8001f44:	e6c3      	b.n	8001cce <HAL_RCC_OscConfig+0x8a>
 8001f46:	2801      	cmp	r0, #1
 8001f48:	f43f aec2 	beq.w	8001cd0 <HAL_RCC_OscConfig+0x8c>
 8001f4c:	6868      	ldr	r0, [r5, #4]
 8001f4e:	69e3      	ldr	r3, [r4, #28]
 8001f50:	f400 0280 	and.w	r2, r0, #4194304	; 0x400000
 8001f54:	429a      	cmp	r2, r3
 8001f56:	f47f ae79 	bne.w	8001c4c <HAL_RCC_OscConfig+0x8>
 8001f5a:	6a22      	ldr	r2, [r4, #32]
 8001f5c:	f000 033f 	and.w	r3, r0, #63	; 0x3f
 8001f60:	4293      	cmp	r3, r2
 8001f62:	f47f ae73 	bne.w	8001c4c <HAL_RCC_OscConfig+0x8>
 8001f66:	6a62      	ldr	r2, [r4, #36]	; 0x24
 8001f68:	f647 73c0 	movw	r3, #32704	; 0x7fc0
 8001f6c:	4003      	ands	r3, r0
 8001f6e:	4293      	cmp	r3, r2
 8001f70:	f47f ae6c 	bne.w	8001c4c <HAL_RCC_OscConfig+0x8>
 8001f74:	6aa2      	ldr	r2, [r4, #40]	; 0x28
 8001f76:	f400 3340 	and.w	r3, r0, #196608	; 0x30000
 8001f7a:	4293      	cmp	r3, r2
 8001f7c:	f47f ae66 	bne.w	8001c4c <HAL_RCC_OscConfig+0x8>
 8001f80:	6ae3      	ldr	r3, [r4, #44]	; 0x2c
 8001f82:	f000 6070 	and.w	r0, r0, #251658240	; 0xf000000
 8001f86:	1ac0      	subs	r0, r0, r3
 8001f88:	bf18      	it	ne
 8001f8a:	2001      	movne	r0, #1
 8001f8c:	e6a0      	b.n	8001cd0 <HAL_RCC_OscConfig+0x8c>
 8001f8e:	bf00      	nop

08001f90 <HAL_RCC_GetSysClockFreq>:
 8001f90:	4913      	ldr	r1, [pc, #76]	; (8001fe0 <HAL_RCC_GetSysClockFreq+0x50>)
 8001f92:	b508      	push	{r3, lr}
 8001f94:	688b      	ldr	r3, [r1, #8]
 8001f96:	f003 030c 	and.w	r3, r3, #12
 8001f9a:	2b04      	cmp	r3, #4
 8001f9c:	d003      	beq.n	8001fa6 <HAL_RCC_GetSysClockFreq+0x16>
 8001f9e:	2b08      	cmp	r3, #8
 8001fa0:	d003      	beq.n	8001faa <HAL_RCC_GetSysClockFreq+0x1a>
 8001fa2:	4810      	ldr	r0, [pc, #64]	; (8001fe4 <HAL_RCC_GetSysClockFreq+0x54>)
 8001fa4:	e000      	b.n	8001fa8 <HAL_RCC_GetSysClockFreq+0x18>
 8001fa6:	4810      	ldr	r0, [pc, #64]	; (8001fe8 <HAL_RCC_GetSysClockFreq+0x58>)
 8001fa8:	bd08      	pop	{r3, pc}
 8001faa:	684a      	ldr	r2, [r1, #4]
 8001fac:	684b      	ldr	r3, [r1, #4]
 8001fae:	6849      	ldr	r1, [r1, #4]
 8001fb0:	f413 0380 	ands.w	r3, r3, #4194304	; 0x400000
 8001fb4:	bf14      	ite	ne
 8001fb6:	480c      	ldrne	r0, [pc, #48]	; (8001fe8 <HAL_RCC_GetSysClockFreq+0x58>)
 8001fb8:	480a      	ldreq	r0, [pc, #40]	; (8001fe4 <HAL_RCC_GetSysClockFreq+0x54>)
 8001fba:	f3c1 1188 	ubfx	r1, r1, #6, #9
 8001fbe:	bf18      	it	ne
 8001fc0:	2300      	movne	r3, #0
 8001fc2:	f002 023f 	and.w	r2, r2, #63	; 0x3f
 8001fc6:	fba1 0100 	umull	r0, r1, r1, r0
 8001fca:	f7fe f90b 	bl	80001e4 <__aeabi_uldivmod>
 8001fce:	4b04      	ldr	r3, [pc, #16]	; (8001fe0 <HAL_RCC_GetSysClockFreq+0x50>)
 8001fd0:	685b      	ldr	r3, [r3, #4]
 8001fd2:	f3c3 4301 	ubfx	r3, r3, #16, #2
 8001fd6:	3301      	adds	r3, #1
 8001fd8:	005b      	lsls	r3, r3, #1
 8001fda:	fbb0 f0f3 	udiv	r0, r0, r3
 8001fde:	e7e3      	b.n	8001fa8 <HAL_RCC_GetSysClockFreq+0x18>
 8001fe0:	40023800 	.word	0x40023800
 8001fe4:	00f42400 	.word	0x00f42400
 8001fe8:	007a1200 	.word	0x007a1200

08001fec <HAL_RCC_ClockConfig>:
 8001fec:	e92d 41f0 	stmdb	sp!, {r4, r5, r6, r7, r8, lr}
 8001ff0:	460d      	mov	r5, r1
 8001ff2:	4604      	mov	r4, r0
 8001ff4:	b910      	cbnz	r0, 8001ffc <HAL_RCC_ClockConfig+0x10>
 8001ff6:	2001      	movs	r0, #1
 8001ff8:	e8bd 81f0 	ldmia.w	sp!, {r4, r5, r6, r7, r8, pc}
 8001ffc:	4b43      	ldr	r3, [pc, #268]	; (800210c <HAL_RCC_ClockConfig+0x120>)
 8001ffe:	681a      	ldr	r2, [r3, #0]
 8002000:	f002 020f 	and.w	r2, r2, #15
 8002004:	428a      	cmp	r2, r1
 8002006:	d328      	bcc.n	800205a <HAL_RCC_ClockConfig+0x6e>
 8002008:	6821      	ldr	r1, [r4, #0]
 800200a:	078f      	lsls	r7, r1, #30
 800200c:	d42d      	bmi.n	800206a <HAL_RCC_ClockConfig+0x7e>
 800200e:	07c8      	lsls	r0, r1, #31
 8002010:	d440      	bmi.n	8002094 <HAL_RCC_ClockConfig+0xa8>
 8002012:	4b3e      	ldr	r3, [pc, #248]	; (800210c <HAL_RCC_ClockConfig+0x120>)
 8002014:	681a      	ldr	r2, [r3, #0]
 8002016:	f002 020f 	and.w	r2, r2, #15
 800201a:	42aa      	cmp	r2, r5
 800201c:	d865      	bhi.n	80020ea <HAL_RCC_ClockConfig+0xfe>
 800201e:	6822      	ldr	r2, [r4, #0]
 8002020:	0751      	lsls	r1, r2, #29
 8002022:	d46b      	bmi.n	80020fc <HAL_RCC_ClockConfig+0x110>
 8002024:	0713      	lsls	r3, r2, #28
 8002026:	d507      	bpl.n	8002038 <HAL_RCC_ClockConfig+0x4c>
 8002028:	4a39      	ldr	r2, [pc, #228]	; (8002110 <HAL_RCC_ClockConfig+0x124>)
 800202a:	6921      	ldr	r1, [r4, #16]
 800202c:	6893      	ldr	r3, [r2, #8]
 800202e:	f423 4360 	bic.w	r3, r3, #57344	; 0xe000
 8002032:	ea43 03c1 	orr.w	r3, r3, r1, lsl #3
 8002036:	6093      	str	r3, [r2, #8]
 8002038:	f7ff ffaa 	bl	8001f90 <HAL_RCC_GetSysClockFreq>
 800203c:	4b34      	ldr	r3, [pc, #208]	; (8002110 <HAL_RCC_ClockConfig+0x124>)
 800203e:	4a35      	ldr	r2, [pc, #212]	; (8002114 <HAL_RCC_ClockConfig+0x128>)
 8002040:	689b      	ldr	r3, [r3, #8]
 8002042:	f3c3 1303 	ubfx	r3, r3, #4, #4
 8002046:	5cd3      	ldrb	r3, [r2, r3]
 8002048:	40d8      	lsrs	r0, r3
 800204a:	4b33      	ldr	r3, [pc, #204]	; (8002118 <HAL_RCC_ClockConfig+0x12c>)
 800204c:	6018      	str	r0, [r3, #0]
 800204e:	4b33      	ldr	r3, [pc, #204]	; (800211c <HAL_RCC_ClockConfig+0x130>)
 8002050:	6818      	ldr	r0, [r3, #0]
 8002052:	f7ff fab1 	bl	80015b8 <HAL_InitTick>
 8002056:	2000      	movs	r0, #0
 8002058:	e7ce      	b.n	8001ff8 <HAL_RCC_ClockConfig+0xc>
 800205a:	b2ca      	uxtb	r2, r1
 800205c:	701a      	strb	r2, [r3, #0]
 800205e:	681b      	ldr	r3, [r3, #0]
 8002060:	f003 030f 	and.w	r3, r3, #15
 8002064:	428b      	cmp	r3, r1
 8002066:	d1c6      	bne.n	8001ff6 <HAL_RCC_ClockConfig+0xa>
 8002068:	e7ce      	b.n	8002008 <HAL_RCC_ClockConfig+0x1c>
 800206a:	4b29      	ldr	r3, [pc, #164]	; (8002110 <HAL_RCC_ClockConfig+0x124>)
 800206c:	f011 0f04 	tst.w	r1, #4
 8002070:	bf1e      	ittt	ne
 8002072:	689a      	ldrne	r2, [r3, #8]
 8002074:	f442 52e0 	orrne.w	r2, r2, #7168	; 0x1c00
 8002078:	609a      	strne	r2, [r3, #8]
 800207a:	070e      	lsls	r6, r1, #28
 800207c:	bf42      	ittt	mi
 800207e:	689a      	ldrmi	r2, [r3, #8]
 8002080:	f442 4260 	orrmi.w	r2, r2, #57344	; 0xe000
 8002084:	609a      	strmi	r2, [r3, #8]
 8002086:	689a      	ldr	r2, [r3, #8]
 8002088:	68a0      	ldr	r0, [r4, #8]
 800208a:	f022 02f0 	bic.w	r2, r2, #240	; 0xf0
 800208e:	4302      	orrs	r2, r0
 8002090:	609a      	str	r2, [r3, #8]
 8002092:	e7bc      	b.n	800200e <HAL_RCC_ClockConfig+0x22>
 8002094:	6862      	ldr	r2, [r4, #4]
 8002096:	4b1e      	ldr	r3, [pc, #120]	; (8002110 <HAL_RCC_ClockConfig+0x124>)
 8002098:	2a01      	cmp	r2, #1
 800209a:	d11c      	bne.n	80020d6 <HAL_RCC_ClockConfig+0xea>
 800209c:	681b      	ldr	r3, [r3, #0]
 800209e:	f413 3f00 	tst.w	r3, #131072	; 0x20000
 80020a2:	d0a8      	beq.n	8001ff6 <HAL_RCC_ClockConfig+0xa>
 80020a4:	4e1a      	ldr	r6, [pc, #104]	; (8002110 <HAL_RCC_ClockConfig+0x124>)
 80020a6:	68b3      	ldr	r3, [r6, #8]
 80020a8:	f023 0303 	bic.w	r3, r3, #3
 80020ac:	4313      	orrs	r3, r2
 80020ae:	60b3      	str	r3, [r6, #8]
 80020b0:	f7ff facc 	bl	800164c <HAL_GetTick>
 80020b4:	f241 3888 	movw	r8, #5000	; 0x1388
 80020b8:	4607      	mov	r7, r0
 80020ba:	68b3      	ldr	r3, [r6, #8]
 80020bc:	6862      	ldr	r2, [r4, #4]
 80020be:	f003 030c 	and.w	r3, r3, #12
 80020c2:	ebb3 0f82 	cmp.w	r3, r2, lsl #2
 80020c6:	d0a4      	beq.n	8002012 <HAL_RCC_ClockConfig+0x26>
 80020c8:	f7ff fac0 	bl	800164c <HAL_GetTick>
 80020cc:	1bc0      	subs	r0, r0, r7
 80020ce:	4540      	cmp	r0, r8
 80020d0:	d9f3      	bls.n	80020ba <HAL_RCC_ClockConfig+0xce>
 80020d2:	2003      	movs	r0, #3
 80020d4:	e790      	b.n	8001ff8 <HAL_RCC_ClockConfig+0xc>
 80020d6:	1e91      	subs	r1, r2, #2
 80020d8:	2901      	cmp	r1, #1
 80020da:	681b      	ldr	r3, [r3, #0]
 80020dc:	d802      	bhi.n	80020e4 <HAL_RCC_ClockConfig+0xf8>
 80020de:	f013 7f00 	tst.w	r3, #33554432	; 0x2000000
 80020e2:	e7de      	b.n	80020a2 <HAL_RCC_ClockConfig+0xb6>
 80020e4:	f013 0f02 	tst.w	r3, #2
 80020e8:	e7db      	b.n	80020a2 <HAL_RCC_ClockConfig+0xb6>
 80020ea:	b2ea      	uxtb	r2, r5
 80020ec:	701a      	strb	r2, [r3, #0]
 80020ee:	681b      	ldr	r3, [r3, #0]
 80020f0:	f003 030f 	and.w	r3, r3, #15
 80020f4:	42ab      	cmp	r3, r5
 80020f6:	f47f af7e 	bne.w	8001ff6 <HAL_RCC_ClockConfig+0xa>
 80020fa:	e790      	b.n	800201e <HAL_RCC_ClockConfig+0x32>
 80020fc:	4904      	ldr	r1, [pc, #16]	; (8002110 <HAL_RCC_ClockConfig+0x124>)
 80020fe:	68e0      	ldr	r0, [r4, #12]
 8002100:	688b      	ldr	r3, [r1, #8]
 8002102:	f423 53e0 	bic.w	r3, r3, #7168	; 0x1c00
 8002106:	4303      	orrs	r3, r0
 8002108:	608b      	str	r3, [r1, #8]
 800210a:	e78b      	b.n	8002024 <HAL_RCC_ClockConfig+0x38>
 800210c:	40023c00 	.word	0x40023c00
 8002110:	40023800 	.word	0x40023800
 8002114:	08003037 	.word	0x08003037
 8002118:	20000000 	.word	0x20000000
 800211c:	20000008 	.word	0x20000008

08002120 <HAL_RCC_GetPCLK1Freq>:
 8002120:	4b04      	ldr	r3, [pc, #16]	; (8002134 <HAL_RCC_GetPCLK1Freq+0x14>)
 8002122:	4a05      	ldr	r2, [pc, #20]	; (8002138 <HAL_RCC_GetPCLK1Freq+0x18>)
 8002124:	689b      	ldr	r3, [r3, #8]
 8002126:	f3c3 2382 	ubfx	r3, r3, #10, #3
 800212a:	5cd3      	ldrb	r3, [r2, r3]
 800212c:	4a03      	ldr	r2, [pc, #12]	; (800213c <HAL_RCC_GetPCLK1Freq+0x1c>)
 800212e:	6810      	ldr	r0, [r2, #0]
 8002130:	40d8      	lsrs	r0, r3
 8002132:	4770      	bx	lr
 8002134:	40023800 	.word	0x40023800
 8002138:	08003047 	.word	0x08003047
 800213c:	20000000 	.word	0x20000000

08002140 <HAL_RCC_GetPCLK2Freq>:
 8002140:	4b04      	ldr	r3, [pc, #16]	; (8002154 <HAL_RCC_GetPCLK2Freq+0x14>)
 8002142:	4a05      	ldr	r2, [pc, #20]	; (8002158 <HAL_RCC_GetPCLK2Freq+0x18>)
 8002144:	689b      	ldr	r3, [r3, #8]
 8002146:	f3c3 3342 	ubfx	r3, r3, #13, #3
 800214a:	5cd3      	ldrb	r3, [r2, r3]
 800214c:	4a03      	ldr	r2, [pc, #12]	; (800215c <HAL_RCC_GetPCLK2Freq+0x1c>)
 800214e:	6810      	ldr	r0, [r2, #0]
 8002150:	40d8      	lsrs	r0, r3
 8002152:	4770      	bx	lr
 8002154:	40023800 	.word	0x40023800
 8002158:	08003047 	.word	0x08003047
 800215c:	20000000 	.word	0x20000000

08002160 <TIM_OC1_SetConfig>:
 8002160:	6a03      	ldr	r3, [r0, #32]
 8002162:	f023 0301 	bic.w	r3, r3, #1
 8002166:	6203      	str	r3, [r0, #32]
 8002168:	6a03      	ldr	r3, [r0, #32]
 800216a:	b570      	push	{r4, r5, r6, lr}
 800216c:	6844      	ldr	r4, [r0, #4]
 800216e:	6982      	ldr	r2, [r0, #24]
 8002170:	680d      	ldr	r5, [r1, #0]
 8002172:	f022 0273 	bic.w	r2, r2, #115	; 0x73
 8002176:	432a      	orrs	r2, r5
 8002178:	688d      	ldr	r5, [r1, #8]
 800217a:	f023 0302 	bic.w	r3, r3, #2
 800217e:	432b      	orrs	r3, r5
 8002180:	4d0a      	ldr	r5, [pc, #40]	; (80021ac <TIM_OC1_SetConfig+0x4c>)
 8002182:	42a8      	cmp	r0, r5
 8002184:	d10b      	bne.n	800219e <TIM_OC1_SetConfig+0x3e>
 8002186:	68cd      	ldr	r5, [r1, #12]
 8002188:	f023 0308 	bic.w	r3, r3, #8
 800218c:	432b      	orrs	r3, r5
 800218e:	e9d1 5605 	ldrd	r5, r6, [r1, #20]
 8002192:	f424 7440 	bic.w	r4, r4, #768	; 0x300
 8002196:	4335      	orrs	r5, r6
 8002198:	f023 0304 	bic.w	r3, r3, #4
 800219c:	432c      	orrs	r4, r5
 800219e:	6044      	str	r4, [r0, #4]
 80021a0:	6182      	str	r2, [r0, #24]
 80021a2:	684a      	ldr	r2, [r1, #4]
 80021a4:	6342      	str	r2, [r0, #52]	; 0x34
 80021a6:	6203      	str	r3, [r0, #32]
 80021a8:	bd70      	pop	{r4, r5, r6, pc}
 80021aa:	bf00      	nop
 80021ac:	40010000 	.word	0x40010000

080021b0 <TIM_OC3_SetConfig>:
 80021b0:	6a03      	ldr	r3, [r0, #32]
 80021b2:	f423 7380 	bic.w	r3, r3, #256	; 0x100
 80021b6:	6203      	str	r3, [r0, #32]
 80021b8:	6a03      	ldr	r3, [r0, #32]
 80021ba:	b570      	push	{r4, r5, r6, lr}
 80021bc:	6844      	ldr	r4, [r0, #4]
 80021be:	69c2      	ldr	r2, [r0, #28]
 80021c0:	680d      	ldr	r5, [r1, #0]
 80021c2:	f022 0273 	bic.w	r2, r2, #115	; 0x73
 80021c6:	432a      	orrs	r2, r5
 80021c8:	688d      	ldr	r5, [r1, #8]
 80021ca:	f423 7300 	bic.w	r3, r3, #512	; 0x200
 80021ce:	ea43 2305 	orr.w	r3, r3, r5, lsl #8
 80021d2:	4d0b      	ldr	r5, [pc, #44]	; (8002200 <TIM_OC3_SetConfig+0x50>)
 80021d4:	42a8      	cmp	r0, r5
 80021d6:	d10d      	bne.n	80021f4 <TIM_OC3_SetConfig+0x44>
 80021d8:	68cd      	ldr	r5, [r1, #12]
 80021da:	f423 6300 	bic.w	r3, r3, #2048	; 0x800
 80021de:	ea43 2305 	orr.w	r3, r3, r5, lsl #8
 80021e2:	e9d1 5605 	ldrd	r5, r6, [r1, #20]
 80021e6:	f424 5440 	bic.w	r4, r4, #12288	; 0x3000
 80021ea:	4335      	orrs	r5, r6
 80021ec:	f423 6380 	bic.w	r3, r3, #1024	; 0x400
 80021f0:	ea44 1405 	orr.w	r4, r4, r5, lsl #4
 80021f4:	6044      	str	r4, [r0, #4]
 80021f6:	61c2      	str	r2, [r0, #28]
 80021f8:	684a      	ldr	r2, [r1, #4]
 80021fa:	63c2      	str	r2, [r0, #60]	; 0x3c
 80021fc:	6203      	str	r3, [r0, #32]
 80021fe:	bd70      	pop	{r4, r5, r6, pc}
 8002200:	40010000 	.word	0x40010000

08002204 <TIM_OC4_SetConfig>:
 8002204:	6a03      	ldr	r3, [r0, #32]
 8002206:	f423 5380 	bic.w	r3, r3, #4096	; 0x1000
 800220a:	6203      	str	r3, [r0, #32]
 800220c:	6a03      	ldr	r3, [r0, #32]
 800220e:	b530      	push	{r4, r5, lr}
 8002210:	6844      	ldr	r4, [r0, #4]
 8002212:	69c2      	ldr	r2, [r0, #28]
 8002214:	680d      	ldr	r5, [r1, #0]
 8002216:	f422 42e6 	bic.w	r2, r2, #29440	; 0x7300
 800221a:	ea42 2205 	orr.w	r2, r2, r5, lsl #8
 800221e:	688d      	ldr	r5, [r1, #8]
 8002220:	f423 5300 	bic.w	r3, r3, #8192	; 0x2000
 8002224:	ea43 3305 	orr.w	r3, r3, r5, lsl #12
 8002228:	4d06      	ldr	r5, [pc, #24]	; (8002244 <TIM_OC4_SetConfig+0x40>)
 800222a:	42a8      	cmp	r0, r5
 800222c:	bf02      	ittt	eq
 800222e:	694d      	ldreq	r5, [r1, #20]
 8002230:	f424 4480 	biceq.w	r4, r4, #16384	; 0x4000
 8002234:	ea44 1485 	orreq.w	r4, r4, r5, lsl #6
 8002238:	6044      	str	r4, [r0, #4]
 800223a:	61c2      	str	r2, [r0, #28]
 800223c:	684a      	ldr	r2, [r1, #4]
 800223e:	6402      	str	r2, [r0, #64]	; 0x40
 8002240:	6203      	str	r3, [r0, #32]
 8002242:	bd30      	pop	{r4, r5, pc}
 8002244:	40010000 	.word	0x40010000

08002248 <HAL_TIM_PWM_MspInit>:
 8002248:	4770      	bx	lr
	...

0800224c <TIM_Base_SetConfig>:
 800224c:	4a24      	ldr	r2, [pc, #144]	; (80022e0 <TIM_Base_SetConfig+0x94>)
 800224e:	6803      	ldr	r3, [r0, #0]
 8002250:	4290      	cmp	r0, r2
 8002252:	d00e      	beq.n	8002272 <TIM_Base_SetConfig+0x26>
 8002254:	f1b0 4f80 	cmp.w	r0, #1073741824	; 0x40000000
 8002258:	d00b      	beq.n	8002272 <TIM_Base_SetConfig+0x26>
 800225a:	f5a2 427c 	sub.w	r2, r2, #64512	; 0xfc00
 800225e:	4290      	cmp	r0, r2
 8002260:	d007      	beq.n	8002272 <TIM_Base_SetConfig+0x26>
 8002262:	f502 6280 	add.w	r2, r2, #1024	; 0x400
 8002266:	4290      	cmp	r0, r2
 8002268:	d003      	beq.n	8002272 <TIM_Base_SetConfig+0x26>
 800226a:	f502 6280 	add.w	r2, r2, #1024	; 0x400
 800226e:	4290      	cmp	r0, r2
 8002270:	d115      	bne.n	800229e <TIM_Base_SetConfig+0x52>
 8002272:	684a      	ldr	r2, [r1, #4]
 8002274:	f023 0370 	bic.w	r3, r3, #112	; 0x70
 8002278:	4313      	orrs	r3, r2
 800227a:	4a19      	ldr	r2, [pc, #100]	; (80022e0 <TIM_Base_SetConfig+0x94>)
 800227c:	4290      	cmp	r0, r2
 800227e:	d019      	beq.n	80022b4 <TIM_Base_SetConfig+0x68>
 8002280:	f1b0 4f80 	cmp.w	r0, #1073741824	; 0x40000000
 8002284:	d016      	beq.n	80022b4 <TIM_Base_SetConfig+0x68>
 8002286:	f5a2 427c 	sub.w	r2, r2, #64512	; 0xfc00
 800228a:	4290      	cmp	r0, r2
 800228c:	d012      	beq.n	80022b4 <TIM_Base_SetConfig+0x68>
 800228e:	f502 6280 	add.w	r2, r2, #1024	; 0x400
 8002292:	4290      	cmp	r0, r2
 8002294:	d00e      	beq.n	80022b4 <TIM_Base_SetConfig+0x68>
 8002296:	f502 6280 	add.w	r2, r2, #1024	; 0x400
 800229a:	4290      	cmp	r0, r2
 800229c:	d00a      	beq.n	80022b4 <TIM_Base_SetConfig+0x68>
 800229e:	4a11      	ldr	r2, [pc, #68]	; (80022e4 <TIM_Base_SetConfig+0x98>)
 80022a0:	4290      	cmp	r0, r2
 80022a2:	d007      	beq.n	80022b4 <TIM_Base_SetConfig+0x68>
 80022a4:	f502 6280 	add.w	r2, r2, #1024	; 0x400
 80022a8:	4290      	cmp	r0, r2
 80022aa:	d003      	beq.n	80022b4 <TIM_Base_SetConfig+0x68>
 80022ac:	f502 6280 	add.w	r2, r2, #1024	; 0x400
 80022b0:	4290      	cmp	r0, r2
 80022b2:	d103      	bne.n	80022bc <TIM_Base_SetConfig+0x70>
 80022b4:	68ca      	ldr	r2, [r1, #12]
 80022b6:	f423 7340 	bic.w	r3, r3, #768	; 0x300
 80022ba:	4313      	orrs	r3, r2
 80022bc:	694a      	ldr	r2, [r1, #20]
 80022be:	f023 0380 	bic.w	r3, r3, #128	; 0x80
 80022c2:	4313      	orrs	r3, r2
 80022c4:	6003      	str	r3, [r0, #0]
 80022c6:	688b      	ldr	r3, [r1, #8]
 80022c8:	62c3      	str	r3, [r0, #44]	; 0x2c
 80022ca:	680b      	ldr	r3, [r1, #0]
 80022cc:	6283      	str	r3, [r0, #40]	; 0x28
 80022ce:	4b04      	ldr	r3, [pc, #16]	; (80022e0 <TIM_Base_SetConfig+0x94>)
 80022d0:	4298      	cmp	r0, r3
 80022d2:	bf04      	itt	eq
 80022d4:	690b      	ldreq	r3, [r1, #16]
 80022d6:	6303      	streq	r3, [r0, #48]	; 0x30
 80022d8:	2301      	movs	r3, #1
 80022da:	6143      	str	r3, [r0, #20]
 80022dc:	4770      	bx	lr
 80022de:	bf00      	nop
 80022e0:	40010000 	.word	0x40010000
 80022e4:	40014000 	.word	0x40014000

080022e8 <HAL_TIM_Base_Init>:
 80022e8:	b510      	push	{r4, lr}
 80022ea:	4604      	mov	r4, r0
 80022ec:	b1a0      	cbz	r0, 8002318 <HAL_TIM_Base_Init+0x30>
 80022ee:	f890 303d 	ldrb.w	r3, [r0, #61]	; 0x3d
 80022f2:	f003 02ff 	and.w	r2, r3, #255	; 0xff
 80022f6:	b91b      	cbnz	r3, 8002300 <HAL_TIM_Base_Init+0x18>
 80022f8:	f880 203c 	strb.w	r2, [r0, #60]	; 0x3c
 80022fc:	f7ff f834 	bl	8001368 <HAL_TIM_Base_MspInit>
 8002300:	2302      	movs	r3, #2
 8002302:	f884 303d 	strb.w	r3, [r4, #61]	; 0x3d
 8002306:	6820      	ldr	r0, [r4, #0]
 8002308:	1d21      	adds	r1, r4, #4
 800230a:	f7ff ff9f 	bl	800224c <TIM_Base_SetConfig>
 800230e:	2301      	movs	r3, #1
 8002310:	f884 303d 	strb.w	r3, [r4, #61]	; 0x3d
 8002314:	2000      	movs	r0, #0
 8002316:	bd10      	pop	{r4, pc}
 8002318:	2001      	movs	r0, #1
 800231a:	e7fc      	b.n	8002316 <HAL_TIM_Base_Init+0x2e>

0800231c <HAL_TIM_PWM_Init>:
 800231c:	b510      	push	{r4, lr}
 800231e:	4604      	mov	r4, r0
 8002320:	b1a0      	cbz	r0, 800234c <HAL_TIM_PWM_Init+0x30>
 8002322:	f890 303d 	ldrb.w	r3, [r0, #61]	; 0x3d
 8002326:	f003 02ff 	and.w	r2, r3, #255	; 0xff
 800232a:	b91b      	cbnz	r3, 8002334 <HAL_TIM_PWM_Init+0x18>
 800232c:	f880 203c 	strb.w	r2, [r0, #60]	; 0x3c
 8002330:	f7ff ff8a 	bl	8002248 <HAL_TIM_PWM_MspInit>
 8002334:	2302      	movs	r3, #2
 8002336:	f884 303d 	strb.w	r3, [r4, #61]	; 0x3d
 800233a:	6820      	ldr	r0, [r4, #0]
 800233c:	1d21      	adds	r1, r4, #4
 800233e:	f7ff ff85 	bl	800224c <TIM_Base_SetConfig>
 8002342:	2301      	movs	r3, #1
 8002344:	f884 303d 	strb.w	r3, [r4, #61]	; 0x3d
 8002348:	2000      	movs	r0, #0
 800234a:	bd10      	pop	{r4, pc}
 800234c:	2001      	movs	r0, #1
 800234e:	e7fc      	b.n	800234a <HAL_TIM_PWM_Init+0x2e>

08002350 <TIM_OC2_SetConfig>:
 8002350:	6a03      	ldr	r3, [r0, #32]
 8002352:	f023 0310 	bic.w	r3, r3, #16
 8002356:	6203      	str	r3, [r0, #32]
 8002358:	6a03      	ldr	r3, [r0, #32]
 800235a:	b570      	push	{r4, r5, r6, lr}
 800235c:	6844      	ldr	r4, [r0, #4]
 800235e:	6982      	ldr	r2, [r0, #24]
 8002360:	680d      	ldr	r5, [r1, #0]
 8002362:	f422 42e6 	bic.w	r2, r2, #29440	; 0x7300
 8002366:	ea42 2205 	orr.w	r2, r2, r5, lsl #8
 800236a:	688d      	ldr	r5, [r1, #8]
 800236c:	f023 0320 	bic.w	r3, r3, #32
 8002370:	ea43 1305 	orr.w	r3, r3, r5, lsl #4
 8002374:	4d0b      	ldr	r5, [pc, #44]	; (80023a4 <TIM_OC2_SetConfig+0x54>)
 8002376:	42a8      	cmp	r0, r5
 8002378:	d10d      	bne.n	8002396 <TIM_OC2_SetConfig+0x46>
 800237a:	68cd      	ldr	r5, [r1, #12]
 800237c:	f023 0380 	bic.w	r3, r3, #128	; 0x80
 8002380:	ea43 1305 	orr.w	r3, r3, r5, lsl #4
 8002384:	e9d1 5605 	ldrd	r5, r6, [r1, #20]
 8002388:	f424 6440 	bic.w	r4, r4, #3072	; 0xc00
 800238c:	4335      	orrs	r5, r6
 800238e:	f023 0340 	bic.w	r3, r3, #64	; 0x40
 8002392:	ea44 0485 	orr.w	r4, r4, r5, lsl #2
 8002396:	6044      	str	r4, [r0, #4]
 8002398:	6182      	str	r2, [r0, #24]
 800239a:	684a      	ldr	r2, [r1, #4]
 800239c:	6382      	str	r2, [r0, #56]	; 0x38
 800239e:	6203      	str	r3, [r0, #32]
 80023a0:	bd70      	pop	{r4, r5, r6, pc}
 80023a2:	bf00      	nop
 80023a4:	40010000 	.word	0x40010000

080023a8 <HAL_TIM_PWM_ConfigChannel>:
 80023a8:	b538      	push	{r3, r4, r5, lr}
 80023aa:	f890 303c 	ldrb.w	r3, [r0, #60]	; 0x3c
 80023ae:	2b01      	cmp	r3, #1
 80023b0:	4604      	mov	r4, r0
 80023b2:	f04f 0002 	mov.w	r0, #2
 80023b6:	d025      	beq.n	8002404 <HAL_TIM_PWM_ConfigChannel+0x5c>
 80023b8:	2301      	movs	r3, #1
 80023ba:	f884 303c 	strb.w	r3, [r4, #60]	; 0x3c
 80023be:	f884 003d 	strb.w	r0, [r4, #61]	; 0x3d
 80023c2:	2a0c      	cmp	r2, #12
 80023c4:	d818      	bhi.n	80023f8 <HAL_TIM_PWM_ConfigChannel+0x50>
 80023c6:	e8df f002 	tbb	[pc, r2]
 80023ca:	1707      	.short	0x1707
 80023cc:	171e1717 	.word	0x171e1717
 80023d0:	172f1717 	.word	0x172f1717
 80023d4:	1717      	.short	0x1717
 80023d6:	40          	.byte	0x40
 80023d7:	00          	.byte	0x00
 80023d8:	6820      	ldr	r0, [r4, #0]
 80023da:	f7ff fec1 	bl	8002160 <TIM_OC1_SetConfig>
 80023de:	6823      	ldr	r3, [r4, #0]
 80023e0:	6909      	ldr	r1, [r1, #16]
 80023e2:	699a      	ldr	r2, [r3, #24]
 80023e4:	f042 0208 	orr.w	r2, r2, #8
 80023e8:	619a      	str	r2, [r3, #24]
 80023ea:	699a      	ldr	r2, [r3, #24]
 80023ec:	f022 0204 	bic.w	r2, r2, #4
 80023f0:	619a      	str	r2, [r3, #24]
 80023f2:	699a      	ldr	r2, [r3, #24]
 80023f4:	430a      	orrs	r2, r1
 80023f6:	619a      	str	r2, [r3, #24]
 80023f8:	2301      	movs	r3, #1
 80023fa:	2000      	movs	r0, #0
 80023fc:	f884 303d 	strb.w	r3, [r4, #61]	; 0x3d
 8002400:	f884 003c 	strb.w	r0, [r4, #60]	; 0x3c
 8002404:	bd38      	pop	{r3, r4, r5, pc}
 8002406:	6820      	ldr	r0, [r4, #0]
 8002408:	f7ff ffa2 	bl	8002350 <TIM_OC2_SetConfig>
 800240c:	6823      	ldr	r3, [r4, #0]
 800240e:	6909      	ldr	r1, [r1, #16]
 8002410:	699a      	ldr	r2, [r3, #24]
 8002412:	f442 6200 	orr.w	r2, r2, #2048	; 0x800
 8002416:	619a      	str	r2, [r3, #24]
 8002418:	699a      	ldr	r2, [r3, #24]
 800241a:	f422 6280 	bic.w	r2, r2, #1024	; 0x400
 800241e:	619a      	str	r2, [r3, #24]
 8002420:	699a      	ldr	r2, [r3, #24]
 8002422:	ea42 2201 	orr.w	r2, r2, r1, lsl #8
 8002426:	e7e6      	b.n	80023f6 <HAL_TIM_PWM_ConfigChannel+0x4e>
 8002428:	6820      	ldr	r0, [r4, #0]
 800242a:	f7ff fec1 	bl	80021b0 <TIM_OC3_SetConfig>
 800242e:	6823      	ldr	r3, [r4, #0]
 8002430:	6909      	ldr	r1, [r1, #16]
 8002432:	69da      	ldr	r2, [r3, #28]
 8002434:	f042 0208 	orr.w	r2, r2, #8
 8002438:	61da      	str	r2, [r3, #28]
 800243a:	69da      	ldr	r2, [r3, #28]
 800243c:	f022 0204 	bic.w	r2, r2, #4
 8002440:	61da      	str	r2, [r3, #28]
 8002442:	69da      	ldr	r2, [r3, #28]
 8002444:	430a      	orrs	r2, r1
 8002446:	61da      	str	r2, [r3, #28]
 8002448:	e7d6      	b.n	80023f8 <HAL_TIM_PWM_ConfigChannel+0x50>
 800244a:	6820      	ldr	r0, [r4, #0]
 800244c:	f7ff feda 	bl	8002204 <TIM_OC4_SetConfig>
 8002450:	6823      	ldr	r3, [r4, #0]
 8002452:	6909      	ldr	r1, [r1, #16]
 8002454:	69da      	ldr	r2, [r3, #28]
 8002456:	f442 6200 	orr.w	r2, r2, #2048	; 0x800
 800245a:	61da      	str	r2, [r3, #28]
 800245c:	69da      	ldr	r2, [r3, #28]
 800245e:	f422 6280 	bic.w	r2, r2, #1024	; 0x400
 8002462:	61da      	str	r2, [r3, #28]
 8002464:	69da      	ldr	r2, [r3, #28]
 8002466:	ea42 2201 	orr.w	r2, r2, r1, lsl #8
 800246a:	e7ec      	b.n	8002446 <HAL_TIM_PWM_ConfigChannel+0x9e>

0800246c <TIM_ETR_SetConfig>:
 800246c:	b510      	push	{r4, lr}
 800246e:	6884      	ldr	r4, [r0, #8]
 8002470:	430a      	orrs	r2, r1
 8002472:	f424 447f 	bic.w	r4, r4, #65280	; 0xff00
 8002476:	ea42 2303 	orr.w	r3, r2, r3, lsl #8
 800247a:	4323      	orrs	r3, r4
 800247c:	6083      	str	r3, [r0, #8]
 800247e:	bd10      	pop	{r4, pc}

08002480 <HAL_TIM_ConfigClockSource>:
 8002480:	f890 303c 	ldrb.w	r3, [r0, #60]	; 0x3c
 8002484:	2b01      	cmp	r3, #1
 8002486:	b570      	push	{r4, r5, r6, lr}
 8002488:	4604      	mov	r4, r0
 800248a:	f04f 0002 	mov.w	r0, #2
 800248e:	d019      	beq.n	80024c4 <HAL_TIM_ConfigClockSource+0x44>
 8002490:	f884 003d 	strb.w	r0, [r4, #61]	; 0x3d
 8002494:	6820      	ldr	r0, [r4, #0]
 8002496:	2301      	movs	r3, #1
 8002498:	f884 303c 	strb.w	r3, [r4, #60]	; 0x3c
 800249c:	6883      	ldr	r3, [r0, #8]
 800249e:	f423 437f 	bic.w	r3, r3, #65280	; 0xff00
 80024a2:	f023 0377 	bic.w	r3, r3, #119	; 0x77
 80024a6:	6083      	str	r3, [r0, #8]
 80024a8:	680b      	ldr	r3, [r1, #0]
 80024aa:	2b40      	cmp	r3, #64	; 0x40
 80024ac:	d065      	beq.n	800257a <HAL_TIM_ConfigClockSource+0xfa>
 80024ae:	d815      	bhi.n	80024dc <HAL_TIM_ConfigClockSource+0x5c>
 80024b0:	2b10      	cmp	r3, #16
 80024b2:	d00c      	beq.n	80024ce <HAL_TIM_ConfigClockSource+0x4e>
 80024b4:	d807      	bhi.n	80024c6 <HAL_TIM_ConfigClockSource+0x46>
 80024b6:	b153      	cbz	r3, 80024ce <HAL_TIM_ConfigClockSource+0x4e>
 80024b8:	2301      	movs	r3, #1
 80024ba:	2000      	movs	r0, #0
 80024bc:	f884 303d 	strb.w	r3, [r4, #61]	; 0x3d
 80024c0:	f884 003c 	strb.w	r0, [r4, #60]	; 0x3c
 80024c4:	bd70      	pop	{r4, r5, r6, pc}
 80024c6:	2b20      	cmp	r3, #32
 80024c8:	d001      	beq.n	80024ce <HAL_TIM_ConfigClockSource+0x4e>
 80024ca:	2b30      	cmp	r3, #48	; 0x30
 80024cc:	d1f4      	bne.n	80024b8 <HAL_TIM_ConfigClockSource+0x38>
 80024ce:	6882      	ldr	r2, [r0, #8]
 80024d0:	f043 0307 	orr.w	r3, r3, #7
 80024d4:	f022 0270 	bic.w	r2, r2, #112	; 0x70
 80024d8:	4313      	orrs	r3, r2
 80024da:	e01a      	b.n	8002512 <HAL_TIM_ConfigClockSource+0x92>
 80024dc:	2b60      	cmp	r3, #96	; 0x60
 80024de:	d034      	beq.n	800254a <HAL_TIM_ConfigClockSource+0xca>
 80024e0:	d819      	bhi.n	8002516 <HAL_TIM_ConfigClockSource+0x96>
 80024e2:	2b50      	cmp	r3, #80	; 0x50
 80024e4:	d1e8      	bne.n	80024b8 <HAL_TIM_ConfigClockSource+0x38>
 80024e6:	684a      	ldr	r2, [r1, #4]
 80024e8:	68ce      	ldr	r6, [r1, #12]
 80024ea:	6a01      	ldr	r1, [r0, #32]
 80024ec:	6a05      	ldr	r5, [r0, #32]
 80024ee:	f025 0501 	bic.w	r5, r5, #1
 80024f2:	6205      	str	r5, [r0, #32]
 80024f4:	6983      	ldr	r3, [r0, #24]
 80024f6:	f021 010a 	bic.w	r1, r1, #10
 80024fa:	f023 03f0 	bic.w	r3, r3, #240	; 0xf0
 80024fe:	ea43 1306 	orr.w	r3, r3, r6, lsl #4
 8002502:	430a      	orrs	r2, r1
 8002504:	6183      	str	r3, [r0, #24]
 8002506:	6202      	str	r2, [r0, #32]
 8002508:	6883      	ldr	r3, [r0, #8]
 800250a:	f023 0370 	bic.w	r3, r3, #112	; 0x70
 800250e:	f043 0357 	orr.w	r3, r3, #87	; 0x57
 8002512:	6083      	str	r3, [r0, #8]
 8002514:	e7d0      	b.n	80024b8 <HAL_TIM_ConfigClockSource+0x38>
 8002516:	2b70      	cmp	r3, #112	; 0x70
 8002518:	d00c      	beq.n	8002534 <HAL_TIM_ConfigClockSource+0xb4>
 800251a:	f5b3 5f00 	cmp.w	r3, #8192	; 0x2000
 800251e:	d1cb      	bne.n	80024b8 <HAL_TIM_ConfigClockSource+0x38>
 8002520:	68cb      	ldr	r3, [r1, #12]
 8002522:	e9d1 2101 	ldrd	r2, r1, [r1, #4]
 8002526:	f7ff ffa1 	bl	800246c <TIM_ETR_SetConfig>
 800252a:	6822      	ldr	r2, [r4, #0]
 800252c:	6893      	ldr	r3, [r2, #8]
 800252e:	f443 4380 	orr.w	r3, r3, #16384	; 0x4000
 8002532:	e008      	b.n	8002546 <HAL_TIM_ConfigClockSource+0xc6>
 8002534:	68cb      	ldr	r3, [r1, #12]
 8002536:	e9d1 2101 	ldrd	r2, r1, [r1, #4]
 800253a:	f7ff ff97 	bl	800246c <TIM_ETR_SetConfig>
 800253e:	6822      	ldr	r2, [r4, #0]
 8002540:	6893      	ldr	r3, [r2, #8]
 8002542:	f043 0377 	orr.w	r3, r3, #119	; 0x77
 8002546:	6093      	str	r3, [r2, #8]
 8002548:	e7b6      	b.n	80024b8 <HAL_TIM_ConfigClockSource+0x38>
 800254a:	684d      	ldr	r5, [r1, #4]
 800254c:	68ce      	ldr	r6, [r1, #12]
 800254e:	6a01      	ldr	r1, [r0, #32]
 8002550:	f021 0110 	bic.w	r1, r1, #16
 8002554:	6201      	str	r1, [r0, #32]
 8002556:	6982      	ldr	r2, [r0, #24]
 8002558:	6a03      	ldr	r3, [r0, #32]
 800255a:	f422 4270 	bic.w	r2, r2, #61440	; 0xf000
 800255e:	f023 03a0 	bic.w	r3, r3, #160	; 0xa0
 8002562:	ea43 1305 	orr.w	r3, r3, r5, lsl #4
 8002566:	ea42 3206 	orr.w	r2, r2, r6, lsl #12
 800256a:	6182      	str	r2, [r0, #24]
 800256c:	6203      	str	r3, [r0, #32]
 800256e:	6883      	ldr	r3, [r0, #8]
 8002570:	f023 0370 	bic.w	r3, r3, #112	; 0x70
 8002574:	f043 0367 	orr.w	r3, r3, #103	; 0x67
 8002578:	e7cb      	b.n	8002512 <HAL_TIM_ConfigClockSource+0x92>
 800257a:	684a      	ldr	r2, [r1, #4]
 800257c:	68ce      	ldr	r6, [r1, #12]
 800257e:	6a01      	ldr	r1, [r0, #32]
 8002580:	6a05      	ldr	r5, [r0, #32]
 8002582:	f025 0501 	bic.w	r5, r5, #1
 8002586:	6205      	str	r5, [r0, #32]
 8002588:	6983      	ldr	r3, [r0, #24]
 800258a:	f021 010a 	bic.w	r1, r1, #10
 800258e:	f023 03f0 	bic.w	r3, r3, #240	; 0xf0
 8002592:	ea43 1306 	orr.w	r3, r3, r6, lsl #4
 8002596:	430a      	orrs	r2, r1
 8002598:	6183      	str	r3, [r0, #24]
 800259a:	6202      	str	r2, [r0, #32]
 800259c:	6883      	ldr	r3, [r0, #8]
 800259e:	f023 0370 	bic.w	r3, r3, #112	; 0x70
 80025a2:	f043 0347 	orr.w	r3, r3, #71	; 0x47
 80025a6:	e7b4      	b.n	8002512 <HAL_TIM_ConfigClockSource+0x92>

080025a8 <TIM_CCxChannelCmd>:
 80025a8:	6a03      	ldr	r3, [r0, #32]
 80025aa:	f001 011f 	and.w	r1, r1, #31
 80025ae:	b510      	push	{r4, lr}
 80025b0:	2401      	movs	r4, #1
 80025b2:	408c      	lsls	r4, r1
 80025b4:	ea23 0304 	bic.w	r3, r3, r4
 80025b8:	6203      	str	r3, [r0, #32]
 80025ba:	6a03      	ldr	r3, [r0, #32]
 80025bc:	408a      	lsls	r2, r1
 80025be:	431a      	orrs	r2, r3
 80025c0:	6202      	str	r2, [r0, #32]
 80025c2:	bd10      	pop	{r4, pc}

080025c4 <HAL_TIM_OC_Start>:
 80025c4:	b510      	push	{r4, lr}
 80025c6:	4604      	mov	r4, r0
 80025c8:	2201      	movs	r2, #1
 80025ca:	6800      	ldr	r0, [r0, #0]
 80025cc:	f7ff ffec 	bl	80025a8 <TIM_CCxChannelCmd>
 80025d0:	6823      	ldr	r3, [r4, #0]
 80025d2:	4a09      	ldr	r2, [pc, #36]	; (80025f8 <HAL_TIM_OC_Start+0x34>)
 80025d4:	4293      	cmp	r3, r2
 80025d6:	bf02      	ittt	eq
 80025d8:	6c5a      	ldreq	r2, [r3, #68]	; 0x44
 80025da:	f442 4200 	orreq.w	r2, r2, #32768	; 0x8000
 80025de:	645a      	streq	r2, [r3, #68]	; 0x44
 80025e0:	689a      	ldr	r2, [r3, #8]
 80025e2:	f002 0207 	and.w	r2, r2, #7
 80025e6:	2a06      	cmp	r2, #6
 80025e8:	bf1e      	ittt	ne
 80025ea:	681a      	ldrne	r2, [r3, #0]
 80025ec:	f042 0201 	orrne.w	r2, r2, #1
 80025f0:	601a      	strne	r2, [r3, #0]
 80025f2:	2000      	movs	r0, #0
 80025f4:	bd10      	pop	{r4, pc}
 80025f6:	bf00      	nop
 80025f8:	40010000 	.word	0x40010000

080025fc <HAL_TIM_PWM_Start>:
 80025fc:	f7ff bfe2 	b.w	80025c4 <HAL_TIM_OC_Start>

08002600 <HAL_TIMEx_MasterConfigSynchronization>:
 8002600:	f890 303c 	ldrb.w	r3, [r0, #60]	; 0x3c
 8002604:	2b01      	cmp	r3, #1
 8002606:	b530      	push	{r4, r5, lr}
 8002608:	f04f 0302 	mov.w	r3, #2
 800260c:	d02d      	beq.n	800266a <HAL_TIMEx_MasterConfigSynchronization+0x6a>
 800260e:	f880 303d 	strb.w	r3, [r0, #61]	; 0x3d
 8002612:	6803      	ldr	r3, [r0, #0]
 8002614:	680d      	ldr	r5, [r1, #0]
 8002616:	685c      	ldr	r4, [r3, #4]
 8002618:	f024 0470 	bic.w	r4, r4, #112	; 0x70
 800261c:	2201      	movs	r2, #1
 800261e:	432c      	orrs	r4, r5
 8002620:	f880 203c 	strb.w	r2, [r0, #60]	; 0x3c
 8002624:	689a      	ldr	r2, [r3, #8]
 8002626:	605c      	str	r4, [r3, #4]
 8002628:	4c11      	ldr	r4, [pc, #68]	; (8002670 <HAL_TIMEx_MasterConfigSynchronization+0x70>)
 800262a:	42a3      	cmp	r3, r4
 800262c:	d012      	beq.n	8002654 <HAL_TIMEx_MasterConfigSynchronization+0x54>
 800262e:	f1b3 4f80 	cmp.w	r3, #1073741824	; 0x40000000
 8002632:	d00f      	beq.n	8002654 <HAL_TIMEx_MasterConfigSynchronization+0x54>
 8002634:	f5a4 447c 	sub.w	r4, r4, #64512	; 0xfc00
 8002638:	42a3      	cmp	r3, r4
 800263a:	d00b      	beq.n	8002654 <HAL_TIMEx_MasterConfigSynchronization+0x54>
 800263c:	f504 6480 	add.w	r4, r4, #1024	; 0x400
 8002640:	42a3      	cmp	r3, r4
 8002642:	d007      	beq.n	8002654 <HAL_TIMEx_MasterConfigSynchronization+0x54>
 8002644:	f504 6480 	add.w	r4, r4, #1024	; 0x400
 8002648:	42a3      	cmp	r3, r4
 800264a:	d003      	beq.n	8002654 <HAL_TIMEx_MasterConfigSynchronization+0x54>
 800264c:	f504 349a 	add.w	r4, r4, #78848	; 0x13400
 8002650:	42a3      	cmp	r3, r4
 8002652:	d104      	bne.n	800265e <HAL_TIMEx_MasterConfigSynchronization+0x5e>
 8002654:	6849      	ldr	r1, [r1, #4]
 8002656:	f022 0280 	bic.w	r2, r2, #128	; 0x80
 800265a:	430a      	orrs	r2, r1
 800265c:	609a      	str	r2, [r3, #8]
 800265e:	2301      	movs	r3, #1
 8002660:	f880 303d 	strb.w	r3, [r0, #61]	; 0x3d
 8002664:	2300      	movs	r3, #0
 8002666:	f880 303c 	strb.w	r3, [r0, #60]	; 0x3c
 800266a:	4618      	mov	r0, r3
 800266c:	bd30      	pop	{r4, r5, pc}
 800266e:	bf00      	nop
 8002670:	40010000 	.word	0x40010000

08002674 <HAL_TIMEx_ConfigBreakDeadTime>:
 8002674:	f890 303c 	ldrb.w	r3, [r0, #60]	; 0x3c
 8002678:	2b01      	cmp	r3, #1
 800267a:	d01f      	beq.n	80026bc <HAL_TIMEx_ConfigBreakDeadTime+0x48>
 800267c:	68cb      	ldr	r3, [r1, #12]
 800267e:	688a      	ldr	r2, [r1, #8]
 8002680:	f423 7340 	bic.w	r3, r3, #768	; 0x300
 8002684:	4313      	orrs	r3, r2
 8002686:	684a      	ldr	r2, [r1, #4]
 8002688:	f423 6380 	bic.w	r3, r3, #1024	; 0x400
 800268c:	4313      	orrs	r3, r2
 800268e:	680a      	ldr	r2, [r1, #0]
 8002690:	f423 6300 	bic.w	r3, r3, #2048	; 0x800
 8002694:	4313      	orrs	r3, r2
 8002696:	690a      	ldr	r2, [r1, #16]
 8002698:	f423 5380 	bic.w	r3, r3, #4096	; 0x1000
 800269c:	4313      	orrs	r3, r2
 800269e:	694a      	ldr	r2, [r1, #20]
 80026a0:	f423 5300 	bic.w	r3, r3, #8192	; 0x2000
 80026a4:	4313      	orrs	r3, r2
 80026a6:	69ca      	ldr	r2, [r1, #28]
 80026a8:	f423 4380 	bic.w	r3, r3, #16384	; 0x4000
 80026ac:	4313      	orrs	r3, r2
 80026ae:	6802      	ldr	r2, [r0, #0]
 80026b0:	6453      	str	r3, [r2, #68]	; 0x44
 80026b2:	2300      	movs	r3, #0
 80026b4:	f880 303c 	strb.w	r3, [r0, #60]	; 0x3c
 80026b8:	4618      	mov	r0, r3
 80026ba:	4770      	bx	lr
 80026bc:	2002      	movs	r0, #2
 80026be:	4770      	bx	lr

080026c0 <UART_EndRxTransfer>:
 80026c0:	6803      	ldr	r3, [r0, #0]
 80026c2:	68da      	ldr	r2, [r3, #12]
 80026c4:	f422 7290 	bic.w	r2, r2, #288	; 0x120
 80026c8:	60da      	str	r2, [r3, #12]
 80026ca:	695a      	ldr	r2, [r3, #20]
 80026cc:	f022 0201 	bic.w	r2, r2, #1
 80026d0:	615a      	str	r2, [r3, #20]
 80026d2:	2320      	movs	r3, #32
 80026d4:	f880 303a 	strb.w	r3, [r0, #58]	; 0x3a
 80026d8:	4770      	bx	lr
	...

080026dc <UART_SetConfig>:
 80026dc:	6803      	ldr	r3, [r0, #0]
 80026de:	68c1      	ldr	r1, [r0, #12]
 80026e0:	691a      	ldr	r2, [r3, #16]
 80026e2:	b570      	push	{r4, r5, r6, lr}
 80026e4:	f422 5240 	bic.w	r2, r2, #12288	; 0x3000
 80026e8:	4604      	mov	r4, r0
 80026ea:	430a      	orrs	r2, r1
 80026ec:	611a      	str	r2, [r3, #16]
 80026ee:	6925      	ldr	r5, [r4, #16]
 80026f0:	68a2      	ldr	r2, [r4, #8]
 80026f2:	68d9      	ldr	r1, [r3, #12]
 80026f4:	69c0      	ldr	r0, [r0, #28]
 80026f6:	432a      	orrs	r2, r5
 80026f8:	6965      	ldr	r5, [r4, #20]
 80026fa:	f421 4116 	bic.w	r1, r1, #38400	; 0x9600
 80026fe:	432a      	orrs	r2, r5
 8002700:	f021 010c 	bic.w	r1, r1, #12
 8002704:	4302      	orrs	r2, r0
 8002706:	430a      	orrs	r2, r1
 8002708:	60da      	str	r2, [r3, #12]
 800270a:	695a      	ldr	r2, [r3, #20]
 800270c:	69a1      	ldr	r1, [r4, #24]
 800270e:	f422 7240 	bic.w	r2, r2, #768	; 0x300
 8002712:	430a      	orrs	r2, r1
 8002714:	f5b0 4f00 	cmp.w	r0, #32768	; 0x8000
 8002718:	615a      	str	r2, [r3, #20]
 800271a:	4a26      	ldr	r2, [pc, #152]	; (80027b4 <UART_SetConfig+0xd8>)
 800271c:	d129      	bne.n	8002772 <UART_SetConfig+0x96>
 800271e:	4293      	cmp	r3, r2
 8002720:	d003      	beq.n	800272a <UART_SetConfig+0x4e>
 8002722:	f502 6280 	add.w	r2, r2, #1024	; 0x400
 8002726:	4293      	cmp	r3, r2
 8002728:	d120      	bne.n	800276c <UART_SetConfig+0x90>
 800272a:	f7ff fd09 	bl	8002140 <HAL_RCC_GetPCLK2Freq>
 800272e:	6862      	ldr	r2, [r4, #4]
 8002730:	2600      	movs	r6, #0
 8002732:	1892      	adds	r2, r2, r2
 8002734:	f04f 0119 	mov.w	r1, #25
 8002738:	eb46 0306 	adc.w	r3, r6, r6
 800273c:	fba0 0101 	umull	r0, r1, r0, r1
 8002740:	f7fd fd50 	bl	80001e4 <__aeabi_uldivmod>
 8002744:	2164      	movs	r1, #100	; 0x64
 8002746:	fbb0 f5f1 	udiv	r5, r0, r1
 800274a:	fb01 0315 	mls	r3, r1, r5, r0
 800274e:	00db      	lsls	r3, r3, #3
 8002750:	3332      	adds	r3, #50	; 0x32
 8002752:	fbb3 f3f1 	udiv	r3, r3, r1
 8002756:	f003 0207 	and.w	r2, r3, #7
 800275a:	005b      	lsls	r3, r3, #1
 800275c:	6821      	ldr	r1, [r4, #0]
 800275e:	eb02 1205 	add.w	r2, r2, r5, lsl #4
 8002762:	f403 73f8 	and.w	r3, r3, #496	; 0x1f0
 8002766:	4413      	add	r3, r2
 8002768:	608b      	str	r3, [r1, #8]
 800276a:	bd70      	pop	{r4, r5, r6, pc}
 800276c:	f7ff fcd8 	bl	8002120 <HAL_RCC_GetPCLK1Freq>
 8002770:	e7dd      	b.n	800272e <UART_SetConfig+0x52>
 8002772:	4293      	cmp	r3, r2
 8002774:	d002      	beq.n	800277c <UART_SetConfig+0xa0>
 8002776:	4a10      	ldr	r2, [pc, #64]	; (80027b8 <UART_SetConfig+0xdc>)
 8002778:	4293      	cmp	r3, r2
 800277a:	d117      	bne.n	80027ac <UART_SetConfig+0xd0>
 800277c:	f7ff fce0 	bl	8002140 <HAL_RCC_GetPCLK2Freq>
 8002780:	6863      	ldr	r3, [r4, #4]
 8002782:	2119      	movs	r1, #25
 8002784:	009a      	lsls	r2, r3, #2
 8002786:	fba0 0101 	umull	r0, r1, r0, r1
 800278a:	0f9b      	lsrs	r3, r3, #30
 800278c:	f7fd fd2a 	bl	80001e4 <__aeabi_uldivmod>
 8002790:	2264      	movs	r2, #100	; 0x64
 8002792:	fbb0 f1f2 	udiv	r1, r0, r2
 8002796:	fb02 0311 	mls	r3, r2, r1, r0
 800279a:	6824      	ldr	r4, [r4, #0]
 800279c:	011b      	lsls	r3, r3, #4
 800279e:	3332      	adds	r3, #50	; 0x32
 80027a0:	fbb3 f3f2 	udiv	r3, r3, r2
 80027a4:	eb03 1301 	add.w	r3, r3, r1, lsl #4
 80027a8:	60a3      	str	r3, [r4, #8]
 80027aa:	e7de      	b.n	800276a <UART_SetConfig+0x8e>
 80027ac:	f7ff fcb8 	bl	8002120 <HAL_RCC_GetPCLK1Freq>
 80027b0:	e7e6      	b.n	8002780 <UART_SetConfig+0xa4>
 80027b2:	bf00      	nop
 80027b4:	40011000 	.word	0x40011000
 80027b8:	40011400 	.word	0x40011400

080027bc <HAL_UART_Init>:
 80027bc:	b510      	push	{r4, lr}
 80027be:	4604      	mov	r4, r0
 80027c0:	b340      	cbz	r0, 8002814 <HAL_UART_Init+0x58>
 80027c2:	f890 3039 	ldrb.w	r3, [r0, #57]	; 0x39
 80027c6:	f003 02ff 	and.w	r2, r3, #255	; 0xff
 80027ca:	b91b      	cbnz	r3, 80027d4 <HAL_UART_Init+0x18>
 80027cc:	f880 2038 	strb.w	r2, [r0, #56]	; 0x38
 80027d0:	f7fe fe0e 	bl	80013f0 <HAL_UART_MspInit>
 80027d4:	6822      	ldr	r2, [r4, #0]
 80027d6:	2324      	movs	r3, #36	; 0x24
 80027d8:	f884 3039 	strb.w	r3, [r4, #57]	; 0x39
 80027dc:	68d3      	ldr	r3, [r2, #12]
 80027de:	f423 5300 	bic.w	r3, r3, #8192	; 0x2000
 80027e2:	60d3      	str	r3, [r2, #12]
 80027e4:	4620      	mov	r0, r4
 80027e6:	f7ff ff79 	bl	80026dc <UART_SetConfig>
 80027ea:	6823      	ldr	r3, [r4, #0]
 80027ec:	691a      	ldr	r2, [r3, #16]
 80027ee:	f422 4290 	bic.w	r2, r2, #18432	; 0x4800
 80027f2:	611a      	str	r2, [r3, #16]
 80027f4:	695a      	ldr	r2, [r3, #20]
 80027f6:	f022 022a 	bic.w	r2, r2, #42	; 0x2a
 80027fa:	615a      	str	r2, [r3, #20]
 80027fc:	68da      	ldr	r2, [r3, #12]
 80027fe:	f442 5200 	orr.w	r2, r2, #8192	; 0x2000
 8002802:	60da      	str	r2, [r3, #12]
 8002804:	2000      	movs	r0, #0
 8002806:	2320      	movs	r3, #32
 8002808:	63e0      	str	r0, [r4, #60]	; 0x3c
 800280a:	f884 3039 	strb.w	r3, [r4, #57]	; 0x39
 800280e:	f884 303a 	strb.w	r3, [r4, #58]	; 0x3a
 8002812:	bd10      	pop	{r4, pc}
 8002814:	2001      	movs	r0, #1
 8002816:	e7fc      	b.n	8002812 <HAL_UART_Init+0x56>

08002818 <HAL_UART_Transmit_DMA>:
 8002818:	b538      	push	{r3, r4, r5, lr}
 800281a:	4604      	mov	r4, r0
 800281c:	4613      	mov	r3, r2
 800281e:	f894 2039 	ldrb.w	r2, [r4, #57]	; 0x39
 8002822:	2a20      	cmp	r2, #32
 8002824:	d12a      	bne.n	800287c <HAL_UART_Transmit_DMA+0x64>
 8002826:	b339      	cbz	r1, 8002878 <HAL_UART_Transmit_DMA+0x60>
 8002828:	b333      	cbz	r3, 8002878 <HAL_UART_Transmit_DMA+0x60>
 800282a:	f894 2038 	ldrb.w	r2, [r4, #56]	; 0x38
 800282e:	2a01      	cmp	r2, #1
 8002830:	d024      	beq.n	800287c <HAL_UART_Transmit_DMA+0x64>
 8002832:	2201      	movs	r2, #1
 8002834:	f884 2038 	strb.w	r2, [r4, #56]	; 0x38
 8002838:	2500      	movs	r5, #0
 800283a:	6b20      	ldr	r0, [r4, #48]	; 0x30
 800283c:	84e3      	strh	r3, [r4, #38]	; 0x26
 800283e:	2221      	movs	r2, #33	; 0x21
 8002840:	63e5      	str	r5, [r4, #60]	; 0x3c
 8002842:	f884 2039 	strb.w	r2, [r4, #57]	; 0x39
 8002846:	4a0e      	ldr	r2, [pc, #56]	; (8002880 <HAL_UART_Transmit_DMA+0x68>)
 8002848:	84a3      	strh	r3, [r4, #36]	; 0x24
 800284a:	6221      	str	r1, [r4, #32]
 800284c:	63c2      	str	r2, [r0, #60]	; 0x3c
 800284e:	4a0d      	ldr	r2, [pc, #52]	; (8002884 <HAL_UART_Transmit_DMA+0x6c>)
 8002850:	6402      	str	r2, [r0, #64]	; 0x40
 8002852:	4a0d      	ldr	r2, [pc, #52]	; (8002888 <HAL_UART_Transmit_DMA+0x70>)
 8002854:	e9c0 2513 	strd	r2, r5, [r0, #76]	; 0x4c
 8002858:	6822      	ldr	r2, [r4, #0]
 800285a:	3204      	adds	r2, #4
 800285c:	f7ff f80e 	bl	800187c <HAL_DMA_Start_IT>
 8002860:	6823      	ldr	r3, [r4, #0]
 8002862:	f06f 0240 	mvn.w	r2, #64	; 0x40
 8002866:	601a      	str	r2, [r3, #0]
 8002868:	695a      	ldr	r2, [r3, #20]
 800286a:	f884 5038 	strb.w	r5, [r4, #56]	; 0x38
 800286e:	f042 0280 	orr.w	r2, r2, #128	; 0x80
 8002872:	615a      	str	r2, [r3, #20]
 8002874:	4628      	mov	r0, r5
 8002876:	bd38      	pop	{r3, r4, r5, pc}
 8002878:	2001      	movs	r0, #1
 800287a:	e7fc      	b.n	8002876 <HAL_UART_Transmit_DMA+0x5e>
 800287c:	2002      	movs	r0, #2
 800287e:	e7fa      	b.n	8002876 <HAL_UART_Transmit_DMA+0x5e>
 8002880:	0800291d 	.word	0x0800291d
 8002884:	0800294b 	.word	0x0800294b
 8002888:	08002a11 	.word	0x08002a11

0800288c <HAL_UART_Receive_DMA>:
 800288c:	4613      	mov	r3, r2
 800288e:	f890 203a 	ldrb.w	r2, [r0, #58]	; 0x3a
 8002892:	2a20      	cmp	r2, #32
 8002894:	b573      	push	{r0, r1, r4, r5, r6, lr}
 8002896:	4605      	mov	r5, r0
 8002898:	d138      	bne.n	800290c <HAL_UART_Receive_DMA+0x80>
 800289a:	2900      	cmp	r1, #0
 800289c:	d034      	beq.n	8002908 <HAL_UART_Receive_DMA+0x7c>
 800289e:	2b00      	cmp	r3, #0
 80028a0:	d032      	beq.n	8002908 <HAL_UART_Receive_DMA+0x7c>
 80028a2:	f890 2038 	ldrb.w	r2, [r0, #56]	; 0x38
 80028a6:	2a01      	cmp	r2, #1
 80028a8:	d030      	beq.n	800290c <HAL_UART_Receive_DMA+0x80>
 80028aa:	2201      	movs	r2, #1
 80028ac:	2400      	movs	r4, #0
 80028ae:	f880 2038 	strb.w	r2, [r0, #56]	; 0x38
 80028b2:	2222      	movs	r2, #34	; 0x22
 80028b4:	63c4      	str	r4, [r0, #60]	; 0x3c
 80028b6:	6281      	str	r1, [r0, #40]	; 0x28
 80028b8:	8583      	strh	r3, [r0, #44]	; 0x2c
 80028ba:	f880 203a 	strb.w	r2, [r0, #58]	; 0x3a
 80028be:	6b40      	ldr	r0, [r0, #52]	; 0x34
 80028c0:	4a13      	ldr	r2, [pc, #76]	; (8002910 <HAL_UART_Receive_DMA+0x84>)
 80028c2:	63c2      	str	r2, [r0, #60]	; 0x3c
 80028c4:	4a13      	ldr	r2, [pc, #76]	; (8002914 <HAL_UART_Receive_DMA+0x88>)
 80028c6:	6402      	str	r2, [r0, #64]	; 0x40
 80028c8:	682e      	ldr	r6, [r5, #0]
 80028ca:	4a13      	ldr	r2, [pc, #76]	; (8002918 <HAL_UART_Receive_DMA+0x8c>)
 80028cc:	e9c0 2413 	strd	r2, r4, [r0, #76]	; 0x4c
 80028d0:	460a      	mov	r2, r1
 80028d2:	1d31      	adds	r1, r6, #4
 80028d4:	f7fe ffd2 	bl	800187c <HAL_DMA_Start_IT>
 80028d8:	682b      	ldr	r3, [r5, #0]
 80028da:	9401      	str	r4, [sp, #4]
 80028dc:	681a      	ldr	r2, [r3, #0]
 80028de:	9201      	str	r2, [sp, #4]
 80028e0:	685a      	ldr	r2, [r3, #4]
 80028e2:	9201      	str	r2, [sp, #4]
 80028e4:	9a01      	ldr	r2, [sp, #4]
 80028e6:	68da      	ldr	r2, [r3, #12]
 80028e8:	f885 4038 	strb.w	r4, [r5, #56]	; 0x38
 80028ec:	f442 7280 	orr.w	r2, r2, #256	; 0x100
 80028f0:	60da      	str	r2, [r3, #12]
 80028f2:	695a      	ldr	r2, [r3, #20]
 80028f4:	f042 0201 	orr.w	r2, r2, #1
 80028f8:	615a      	str	r2, [r3, #20]
 80028fa:	695a      	ldr	r2, [r3, #20]
 80028fc:	f042 0240 	orr.w	r2, r2, #64	; 0x40
 8002900:	615a      	str	r2, [r3, #20]
 8002902:	4620      	mov	r0, r4
 8002904:	b002      	add	sp, #8
 8002906:	bd70      	pop	{r4, r5, r6, pc}
 8002908:	2001      	movs	r0, #1
 800290a:	e7fb      	b.n	8002904 <HAL_UART_Receive_DMA+0x78>
 800290c:	2002      	movs	r0, #2
 800290e:	e7f9      	b.n	8002904 <HAL_UART_Receive_DMA+0x78>
 8002910:	08002955 	.word	0x08002955
 8002914:	08002a05 	.word	0x08002a05
 8002918:	08002a11 	.word	0x08002a11

0800291c <UART_DMATransmitCplt>:
 800291c:	b508      	push	{r3, lr}
 800291e:	6803      	ldr	r3, [r0, #0]
 8002920:	6b82      	ldr	r2, [r0, #56]	; 0x38
 8002922:	681b      	ldr	r3, [r3, #0]
 8002924:	f413 7380 	ands.w	r3, r3, #256	; 0x100
 8002928:	d10a      	bne.n	8002940 <UART_DMATransmitCplt+0x24>
 800292a:	84d3      	strh	r3, [r2, #38]	; 0x26
 800292c:	6813      	ldr	r3, [r2, #0]
 800292e:	695a      	ldr	r2, [r3, #20]
 8002930:	f022 0280 	bic.w	r2, r2, #128	; 0x80
 8002934:	615a      	str	r2, [r3, #20]
 8002936:	68da      	ldr	r2, [r3, #12]
 8002938:	f042 0240 	orr.w	r2, r2, #64	; 0x40
 800293c:	60da      	str	r2, [r3, #12]
 800293e:	bd08      	pop	{r3, pc}
 8002940:	4610      	mov	r0, r2
 8002942:	f7fe f84b 	bl	80009dc <HAL_UART_TxCpltCallback>
 8002946:	e7fa      	b.n	800293e <UART_DMATransmitCplt+0x22>

08002948 <HAL_UART_TxHalfCpltCallback>:
 8002948:	4770      	bx	lr

0800294a <UART_DMATxHalfCplt>:
 800294a:	b508      	push	{r3, lr}
 800294c:	6b80      	ldr	r0, [r0, #56]	; 0x38
 800294e:	f7ff fffb 	bl	8002948 <HAL_UART_TxHalfCpltCallback>
 8002952:	bd08      	pop	{r3, pc}

08002954 <UART_DMAReceiveCplt>:
 8002954:	b508      	push	{r3, lr}
 8002956:	6803      	ldr	r3, [r0, #0]
 8002958:	6b82      	ldr	r2, [r0, #56]	; 0x38
 800295a:	681b      	ldr	r3, [r3, #0]
 800295c:	f413 7380 	ands.w	r3, r3, #256	; 0x100
 8002960:	d110      	bne.n	8002984 <UART_DMAReceiveCplt+0x30>
 8002962:	85d3      	strh	r3, [r2, #46]	; 0x2e
 8002964:	6813      	ldr	r3, [r2, #0]
 8002966:	68d9      	ldr	r1, [r3, #12]
 8002968:	f421 7180 	bic.w	r1, r1, #256	; 0x100
 800296c:	60d9      	str	r1, [r3, #12]
 800296e:	6959      	ldr	r1, [r3, #20]
 8002970:	f021 0101 	bic.w	r1, r1, #1
 8002974:	6159      	str	r1, [r3, #20]
 8002976:	6959      	ldr	r1, [r3, #20]
 8002978:	f021 0140 	bic.w	r1, r1, #64	; 0x40
 800297c:	6159      	str	r1, [r3, #20]
 800297e:	2320      	movs	r3, #32
 8002980:	f882 303a 	strb.w	r3, [r2, #58]	; 0x3a
 8002984:	4610      	mov	r0, r2
 8002986:	f7fe f831 	bl	80009ec <HAL_UART_RxCpltCallback>
 800298a:	bd08      	pop	{r3, pc}

0800298c <UART_Receive_IT>:
 800298c:	f890 303a 	ldrb.w	r3, [r0, #58]	; 0x3a
 8002990:	2b22      	cmp	r3, #34	; 0x22
 8002992:	b510      	push	{r4, lr}
 8002994:	d133      	bne.n	80029fe <UART_Receive_IT+0x72>
 8002996:	6881      	ldr	r1, [r0, #8]
 8002998:	6904      	ldr	r4, [r0, #16]
 800299a:	6a83      	ldr	r3, [r0, #40]	; 0x28
 800299c:	6802      	ldr	r2, [r0, #0]
 800299e:	f5b1 5f80 	cmp.w	r1, #4096	; 0x1000
 80029a2:	d123      	bne.n	80029ec <UART_Receive_IT+0x60>
 80029a4:	6852      	ldr	r2, [r2, #4]
 80029a6:	b9ec      	cbnz	r4, 80029e4 <UART_Receive_IT+0x58>
 80029a8:	f3c2 0208 	ubfx	r2, r2, #0, #9
 80029ac:	f823 2b02 	strh.w	r2, [r3], #2
 80029b0:	6283      	str	r3, [r0, #40]	; 0x28
 80029b2:	8dc4      	ldrh	r4, [r0, #46]	; 0x2e
 80029b4:	3c01      	subs	r4, #1
 80029b6:	b2a4      	uxth	r4, r4
 80029b8:	85c4      	strh	r4, [r0, #46]	; 0x2e
 80029ba:	b98c      	cbnz	r4, 80029e0 <UART_Receive_IT+0x54>
 80029bc:	6803      	ldr	r3, [r0, #0]
 80029be:	68da      	ldr	r2, [r3, #12]
 80029c0:	f022 0220 	bic.w	r2, r2, #32
 80029c4:	60da      	str	r2, [r3, #12]
 80029c6:	68da      	ldr	r2, [r3, #12]
 80029c8:	f422 7280 	bic.w	r2, r2, #256	; 0x100
 80029cc:	60da      	str	r2, [r3, #12]
 80029ce:	695a      	ldr	r2, [r3, #20]
 80029d0:	f022 0201 	bic.w	r2, r2, #1
 80029d4:	615a      	str	r2, [r3, #20]
 80029d6:	2320      	movs	r3, #32
 80029d8:	f880 303a 	strb.w	r3, [r0, #58]	; 0x3a
 80029dc:	f7fe f806 	bl	80009ec <HAL_UART_RxCpltCallback>
 80029e0:	2000      	movs	r0, #0
 80029e2:	e00d      	b.n	8002a00 <UART_Receive_IT+0x74>
 80029e4:	b2d2      	uxtb	r2, r2
 80029e6:	f823 2b01 	strh.w	r2, [r3], #1
 80029ea:	e7e1      	b.n	80029b0 <UART_Receive_IT+0x24>
 80029ec:	1c59      	adds	r1, r3, #1
 80029ee:	6852      	ldr	r2, [r2, #4]
 80029f0:	6281      	str	r1, [r0, #40]	; 0x28
 80029f2:	b90c      	cbnz	r4, 80029f8 <UART_Receive_IT+0x6c>
 80029f4:	701a      	strb	r2, [r3, #0]
 80029f6:	e7dc      	b.n	80029b2 <UART_Receive_IT+0x26>
 80029f8:	f002 027f 	and.w	r2, r2, #127	; 0x7f
 80029fc:	e7fa      	b.n	80029f4 <UART_Receive_IT+0x68>
 80029fe:	2002      	movs	r0, #2
 8002a00:	bd10      	pop	{r4, pc}

08002a02 <HAL_UART_RxHalfCpltCallback>:
 8002a02:	4770      	bx	lr

08002a04 <UART_DMARxHalfCplt>:
 8002a04:	b508      	push	{r3, lr}
 8002a06:	6b80      	ldr	r0, [r0, #56]	; 0x38
 8002a08:	f7ff fffb 	bl	8002a02 <HAL_UART_RxHalfCpltCallback>
 8002a0c:	bd08      	pop	{r3, pc}

08002a0e <HAL_UART_ErrorCallback>:
 8002a0e:	4770      	bx	lr

08002a10 <UART_DMAError>:
 8002a10:	6b81      	ldr	r1, [r0, #56]	; 0x38
 8002a12:	b508      	push	{r3, lr}
 8002a14:	680b      	ldr	r3, [r1, #0]
 8002a16:	695a      	ldr	r2, [r3, #20]
 8002a18:	f891 0039 	ldrb.w	r0, [r1, #57]	; 0x39
 8002a1c:	2821      	cmp	r0, #33	; 0x21
 8002a1e:	d10a      	bne.n	8002a36 <UART_DMAError+0x26>
 8002a20:	0612      	lsls	r2, r2, #24
 8002a22:	d508      	bpl.n	8002a36 <UART_DMAError+0x26>
 8002a24:	2200      	movs	r2, #0
 8002a26:	84ca      	strh	r2, [r1, #38]	; 0x26
 8002a28:	68da      	ldr	r2, [r3, #12]
 8002a2a:	f022 02c0 	bic.w	r2, r2, #192	; 0xc0
 8002a2e:	60da      	str	r2, [r3, #12]
 8002a30:	2220      	movs	r2, #32
 8002a32:	f881 2039 	strb.w	r2, [r1, #57]	; 0x39
 8002a36:	695b      	ldr	r3, [r3, #20]
 8002a38:	f891 203a 	ldrb.w	r2, [r1, #58]	; 0x3a
 8002a3c:	2a22      	cmp	r2, #34	; 0x22
 8002a3e:	d106      	bne.n	8002a4e <UART_DMAError+0x3e>
 8002a40:	065b      	lsls	r3, r3, #25
 8002a42:	d504      	bpl.n	8002a4e <UART_DMAError+0x3e>
 8002a44:	2300      	movs	r3, #0
 8002a46:	85cb      	strh	r3, [r1, #46]	; 0x2e
 8002a48:	4608      	mov	r0, r1
 8002a4a:	f7ff fe39 	bl	80026c0 <UART_EndRxTransfer>
 8002a4e:	6bcb      	ldr	r3, [r1, #60]	; 0x3c
 8002a50:	f043 0310 	orr.w	r3, r3, #16
 8002a54:	63cb      	str	r3, [r1, #60]	; 0x3c
 8002a56:	4608      	mov	r0, r1
 8002a58:	f7ff ffd9 	bl	8002a0e <HAL_UART_ErrorCallback>
 8002a5c:	bd08      	pop	{r3, pc}
	...

08002a60 <HAL_UART_IRQHandler>:
 8002a60:	6803      	ldr	r3, [r0, #0]
 8002a62:	681a      	ldr	r2, [r3, #0]
 8002a64:	68d9      	ldr	r1, [r3, #12]
 8002a66:	b570      	push	{r4, r5, r6, lr}
 8002a68:	0716      	lsls	r6, r2, #28
 8002a6a:	4604      	mov	r4, r0
 8002a6c:	695d      	ldr	r5, [r3, #20]
 8002a6e:	d107      	bne.n	8002a80 <HAL_UART_IRQHandler+0x20>
 8002a70:	0696      	lsls	r6, r2, #26
 8002a72:	d55a      	bpl.n	8002b2a <HAL_UART_IRQHandler+0xca>
 8002a74:	068d      	lsls	r5, r1, #26
 8002a76:	d558      	bpl.n	8002b2a <HAL_UART_IRQHandler+0xca>
 8002a78:	e8bd 4070 	ldmia.w	sp!, {r4, r5, r6, lr}
 8002a7c:	f7ff bf86 	b.w	800298c <UART_Receive_IT>
 8002a80:	f015 0501 	ands.w	r5, r5, #1
 8002a84:	d102      	bne.n	8002a8c <HAL_UART_IRQHandler+0x2c>
 8002a86:	f411 7f90 	tst.w	r1, #288	; 0x120
 8002a8a:	d04e      	beq.n	8002b2a <HAL_UART_IRQHandler+0xca>
 8002a8c:	07d0      	lsls	r0, r2, #31
 8002a8e:	d505      	bpl.n	8002a9c <HAL_UART_IRQHandler+0x3c>
 8002a90:	05cb      	lsls	r3, r1, #23
 8002a92:	bf42      	ittt	mi
 8002a94:	6be3      	ldrmi	r3, [r4, #60]	; 0x3c
 8002a96:	f043 0301 	orrmi.w	r3, r3, #1
 8002a9a:	63e3      	strmi	r3, [r4, #60]	; 0x3c
 8002a9c:	0756      	lsls	r6, r2, #29
 8002a9e:	d504      	bpl.n	8002aaa <HAL_UART_IRQHandler+0x4a>
 8002aa0:	b11d      	cbz	r5, 8002aaa <HAL_UART_IRQHandler+0x4a>
 8002aa2:	6be3      	ldr	r3, [r4, #60]	; 0x3c
 8002aa4:	f043 0302 	orr.w	r3, r3, #2
 8002aa8:	63e3      	str	r3, [r4, #60]	; 0x3c
 8002aaa:	0790      	lsls	r0, r2, #30
 8002aac:	d504      	bpl.n	8002ab8 <HAL_UART_IRQHandler+0x58>
 8002aae:	b11d      	cbz	r5, 8002ab8 <HAL_UART_IRQHandler+0x58>
 8002ab0:	6be3      	ldr	r3, [r4, #60]	; 0x3c
 8002ab2:	f043 0304 	orr.w	r3, r3, #4
 8002ab6:	63e3      	str	r3, [r4, #60]	; 0x3c
 8002ab8:	0713      	lsls	r3, r2, #28
 8002aba:	d506      	bpl.n	8002aca <HAL_UART_IRQHandler+0x6a>
 8002abc:	068e      	lsls	r6, r1, #26
 8002abe:	d400      	bmi.n	8002ac2 <HAL_UART_IRQHandler+0x62>
 8002ac0:	b11d      	cbz	r5, 8002aca <HAL_UART_IRQHandler+0x6a>
 8002ac2:	6be3      	ldr	r3, [r4, #60]	; 0x3c
 8002ac4:	f043 0308 	orr.w	r3, r3, #8
 8002ac8:	63e3      	str	r3, [r4, #60]	; 0x3c
 8002aca:	6be3      	ldr	r3, [r4, #60]	; 0x3c
 8002acc:	b343      	cbz	r3, 8002b20 <HAL_UART_IRQHandler+0xc0>
 8002ace:	0695      	lsls	r5, r2, #26
 8002ad0:	d504      	bpl.n	8002adc <HAL_UART_IRQHandler+0x7c>
 8002ad2:	0688      	lsls	r0, r1, #26
 8002ad4:	d502      	bpl.n	8002adc <HAL_UART_IRQHandler+0x7c>
 8002ad6:	4620      	mov	r0, r4
 8002ad8:	f7ff ff58 	bl	800298c <UART_Receive_IT>
 8002adc:	6823      	ldr	r3, [r4, #0]
 8002ade:	695d      	ldr	r5, [r3, #20]
 8002ae0:	6be2      	ldr	r2, [r4, #60]	; 0x3c
 8002ae2:	0711      	lsls	r1, r2, #28
 8002ae4:	4620      	mov	r0, r4
 8002ae6:	d402      	bmi.n	8002aee <HAL_UART_IRQHandler+0x8e>
 8002ae8:	f015 0540 	ands.w	r5, r5, #64	; 0x40
 8002aec:	d019      	beq.n	8002b22 <HAL_UART_IRQHandler+0xc2>
 8002aee:	f7ff fde7 	bl	80026c0 <UART_EndRxTransfer>
 8002af2:	6823      	ldr	r3, [r4, #0]
 8002af4:	695a      	ldr	r2, [r3, #20]
 8002af6:	0652      	lsls	r2, r2, #25
 8002af8:	d50f      	bpl.n	8002b1a <HAL_UART_IRQHandler+0xba>
 8002afa:	695a      	ldr	r2, [r3, #20]
 8002afc:	6b60      	ldr	r0, [r4, #52]	; 0x34
 8002afe:	f022 0240 	bic.w	r2, r2, #64	; 0x40
 8002b02:	615a      	str	r2, [r3, #20]
 8002b04:	b148      	cbz	r0, 8002b1a <HAL_UART_IRQHandler+0xba>
 8002b06:	4b26      	ldr	r3, [pc, #152]	; (8002ba0 <HAL_UART_IRQHandler+0x140>)
 8002b08:	6503      	str	r3, [r0, #80]	; 0x50
 8002b0a:	f7fe fef1 	bl	80018f0 <HAL_DMA_Abort_IT>
 8002b0e:	b138      	cbz	r0, 8002b20 <HAL_UART_IRQHandler+0xc0>
 8002b10:	6b60      	ldr	r0, [r4, #52]	; 0x34
 8002b12:	e8bd 4070 	ldmia.w	sp!, {r4, r5, r6, lr}
 8002b16:	6d03      	ldr	r3, [r0, #80]	; 0x50
 8002b18:	4718      	bx	r3
 8002b1a:	4620      	mov	r0, r4
 8002b1c:	f7ff ff77 	bl	8002a0e <HAL_UART_ErrorCallback>
 8002b20:	bd70      	pop	{r4, r5, r6, pc}
 8002b22:	f7ff ff74 	bl	8002a0e <HAL_UART_ErrorCallback>
 8002b26:	63e5      	str	r5, [r4, #60]	; 0x3c
 8002b28:	e7fa      	b.n	8002b20 <HAL_UART_IRQHandler+0xc0>
 8002b2a:	0616      	lsls	r6, r2, #24
 8002b2c:	d528      	bpl.n	8002b80 <HAL_UART_IRQHandler+0x120>
 8002b2e:	060d      	lsls	r5, r1, #24
 8002b30:	d526      	bpl.n	8002b80 <HAL_UART_IRQHandler+0x120>
 8002b32:	f894 2039 	ldrb.w	r2, [r4, #57]	; 0x39
 8002b36:	2a21      	cmp	r2, #33	; 0x21
 8002b38:	d1f2      	bne.n	8002b20 <HAL_UART_IRQHandler+0xc0>
 8002b3a:	68a1      	ldr	r1, [r4, #8]
 8002b3c:	6a22      	ldr	r2, [r4, #32]
 8002b3e:	f5b1 5f80 	cmp.w	r1, #4096	; 0x1000
 8002b42:	d118      	bne.n	8002b76 <HAL_UART_IRQHandler+0x116>
 8002b44:	8811      	ldrh	r1, [r2, #0]
 8002b46:	f3c1 0108 	ubfx	r1, r1, #0, #9
 8002b4a:	6059      	str	r1, [r3, #4]
 8002b4c:	6921      	ldr	r1, [r4, #16]
 8002b4e:	b981      	cbnz	r1, 8002b72 <HAL_UART_IRQHandler+0x112>
 8002b50:	3202      	adds	r2, #2
 8002b52:	6222      	str	r2, [r4, #32]
 8002b54:	8ce2      	ldrh	r2, [r4, #38]	; 0x26
 8002b56:	3a01      	subs	r2, #1
 8002b58:	b292      	uxth	r2, r2
 8002b5a:	84e2      	strh	r2, [r4, #38]	; 0x26
 8002b5c:	2a00      	cmp	r2, #0
 8002b5e:	d1df      	bne.n	8002b20 <HAL_UART_IRQHandler+0xc0>
 8002b60:	68da      	ldr	r2, [r3, #12]
 8002b62:	f022 0280 	bic.w	r2, r2, #128	; 0x80
 8002b66:	60da      	str	r2, [r3, #12]
 8002b68:	68da      	ldr	r2, [r3, #12]
 8002b6a:	f042 0240 	orr.w	r2, r2, #64	; 0x40
 8002b6e:	60da      	str	r2, [r3, #12]
 8002b70:	e7d6      	b.n	8002b20 <HAL_UART_IRQHandler+0xc0>
 8002b72:	3201      	adds	r2, #1
 8002b74:	e7ed      	b.n	8002b52 <HAL_UART_IRQHandler+0xf2>
 8002b76:	1c51      	adds	r1, r2, #1
 8002b78:	6221      	str	r1, [r4, #32]
 8002b7a:	7812      	ldrb	r2, [r2, #0]
 8002b7c:	605a      	str	r2, [r3, #4]
 8002b7e:	e7e9      	b.n	8002b54 <HAL_UART_IRQHandler+0xf4>
 8002b80:	0650      	lsls	r0, r2, #25
 8002b82:	d5cd      	bpl.n	8002b20 <HAL_UART_IRQHandler+0xc0>
 8002b84:	064a      	lsls	r2, r1, #25
 8002b86:	d5cb      	bpl.n	8002b20 <HAL_UART_IRQHandler+0xc0>
 8002b88:	68da      	ldr	r2, [r3, #12]
 8002b8a:	f022 0240 	bic.w	r2, r2, #64	; 0x40
 8002b8e:	60da      	str	r2, [r3, #12]
 8002b90:	2320      	movs	r3, #32
 8002b92:	f884 3039 	strb.w	r3, [r4, #57]	; 0x39
 8002b96:	4620      	mov	r0, r4
 8002b98:	f7fd ff20 	bl	80009dc <HAL_UART_TxCpltCallback>
 8002b9c:	e7c0      	b.n	8002b20 <HAL_UART_IRQHandler+0xc0>
 8002b9e:	bf00      	nop
 8002ba0:	08002ba5 	.word	0x08002ba5

08002ba4 <UART_DMAAbortOnError>:
 8002ba4:	b508      	push	{r3, lr}
 8002ba6:	6b80      	ldr	r0, [r0, #56]	; 0x38
 8002ba8:	2300      	movs	r3, #0
 8002baa:	85c3      	strh	r3, [r0, #46]	; 0x2e
 8002bac:	84c3      	strh	r3, [r0, #38]	; 0x26
 8002bae:	f7ff ff2e 	bl	8002a0e <HAL_UART_ErrorCallback>
 8002bb2:	bd08      	pop	{r3, pc}

08002bb4 <__errno>:
 8002bb4:	4b01      	ldr	r3, [pc, #4]	; (8002bbc <__errno+0x8>)
 8002bb6:	6818      	ldr	r0, [r3, #0]
 8002bb8:	4770      	bx	lr
 8002bba:	bf00      	nop
 8002bbc:	2000000c 	.word	0x2000000c

08002bc0 <__libc_init_array>:
 8002bc0:	b570      	push	{r4, r5, r6, lr}
 8002bc2:	4e0d      	ldr	r6, [pc, #52]	; (8002bf8 <__libc_init_array+0x38>)
 8002bc4:	4c0d      	ldr	r4, [pc, #52]	; (8002bfc <__libc_init_array+0x3c>)
 8002bc6:	1ba4      	subs	r4, r4, r6
 8002bc8:	10a4      	asrs	r4, r4, #2
 8002bca:	2500      	movs	r5, #0
 8002bcc:	42a5      	cmp	r5, r4
 8002bce:	d109      	bne.n	8002be4 <__libc_init_array+0x24>
 8002bd0:	4e0b      	ldr	r6, [pc, #44]	; (8002c00 <__libc_init_array+0x40>)
 8002bd2:	4c0c      	ldr	r4, [pc, #48]	; (8002c04 <__libc_init_array+0x44>)
 8002bd4:	f000 f91c 	bl	8002e10 <_init>
 8002bd8:	1ba4      	subs	r4, r4, r6
 8002bda:	10a4      	asrs	r4, r4, #2
 8002bdc:	2500      	movs	r5, #0
 8002bde:	42a5      	cmp	r5, r4
 8002be0:	d105      	bne.n	8002bee <__libc_init_array+0x2e>
 8002be2:	bd70      	pop	{r4, r5, r6, pc}
 8002be4:	f856 3025 	ldr.w	r3, [r6, r5, lsl #2]
 8002be8:	4798      	blx	r3
 8002bea:	3501      	adds	r5, #1
 8002bec:	e7ee      	b.n	8002bcc <__libc_init_array+0xc>
 8002bee:	f856 3025 	ldr.w	r3, [r6, r5, lsl #2]
 8002bf2:	4798      	blx	r3
 8002bf4:	3501      	adds	r5, #1
 8002bf6:	e7f2      	b.n	8002bde <__libc_init_array+0x1e>
 8002bf8:	08003060 	.word	0x08003060
 8002bfc:	08003060 	.word	0x08003060
 8002c00:	08003060 	.word	0x08003060
 8002c04:	08003068 	.word	0x08003068

08002c08 <memcpy>:
 8002c08:	b510      	push	{r4, lr}
 8002c0a:	1e43      	subs	r3, r0, #1
 8002c0c:	440a      	add	r2, r1
 8002c0e:	4291      	cmp	r1, r2
 8002c10:	d100      	bne.n	8002c14 <memcpy+0xc>
 8002c12:	bd10      	pop	{r4, pc}
 8002c14:	f811 4b01 	ldrb.w	r4, [r1], #1
 8002c18:	f803 4f01 	strb.w	r4, [r3, #1]!
 8002c1c:	e7f7      	b.n	8002c0e <memcpy+0x6>

08002c1e <memset>:
 8002c1e:	4402      	add	r2, r0
 8002c20:	4603      	mov	r3, r0
 8002c22:	4293      	cmp	r3, r2
 8002c24:	d100      	bne.n	8002c28 <memset+0xa>
 8002c26:	4770      	bx	lr
 8002c28:	f803 1b01 	strb.w	r1, [r3], #1
 8002c2c:	e7f9      	b.n	8002c22 <memset+0x4>
	...

08002c30 <realloc>:
 8002c30:	4b02      	ldr	r3, [pc, #8]	; (8002c3c <realloc+0xc>)
 8002c32:	460a      	mov	r2, r1
 8002c34:	4601      	mov	r1, r0
 8002c36:	6818      	ldr	r0, [r3, #0]
 8002c38:	f000 b802 	b.w	8002c40 <_realloc_r>
 8002c3c:	2000000c 	.word	0x2000000c

08002c40 <_realloc_r>:
 8002c40:	b5f8      	push	{r3, r4, r5, r6, r7, lr}
 8002c42:	4607      	mov	r7, r0
 8002c44:	4614      	mov	r4, r2
 8002c46:	460e      	mov	r6, r1
 8002c48:	b921      	cbnz	r1, 8002c54 <_realloc_r+0x14>
 8002c4a:	4611      	mov	r1, r2
 8002c4c:	e8bd 40f8 	ldmia.w	sp!, {r3, r4, r5, r6, r7, lr}
 8002c50:	f000 b86a 	b.w	8002d28 <_malloc_r>
 8002c54:	b922      	cbnz	r2, 8002c60 <_realloc_r+0x20>
 8002c56:	f000 f819 	bl	8002c8c <_free_r>
 8002c5a:	4625      	mov	r5, r4
 8002c5c:	4628      	mov	r0, r5
 8002c5e:	bdf8      	pop	{r3, r4, r5, r6, r7, pc}
 8002c60:	f000 f8bc 	bl	8002ddc <_malloc_usable_size_r>
 8002c64:	42a0      	cmp	r0, r4
 8002c66:	d20f      	bcs.n	8002c88 <_realloc_r+0x48>
 8002c68:	4621      	mov	r1, r4
 8002c6a:	4638      	mov	r0, r7
 8002c6c:	f000 f85c 	bl	8002d28 <_malloc_r>
 8002c70:	4605      	mov	r5, r0
 8002c72:	2800      	cmp	r0, #0
 8002c74:	d0f2      	beq.n	8002c5c <_realloc_r+0x1c>
 8002c76:	4631      	mov	r1, r6
 8002c78:	4622      	mov	r2, r4
 8002c7a:	f7ff ffc5 	bl	8002c08 <memcpy>
 8002c7e:	4631      	mov	r1, r6
 8002c80:	4638      	mov	r0, r7
 8002c82:	f000 f803 	bl	8002c8c <_free_r>
 8002c86:	e7e9      	b.n	8002c5c <_realloc_r+0x1c>
 8002c88:	4635      	mov	r5, r6
 8002c8a:	e7e7      	b.n	8002c5c <_realloc_r+0x1c>

08002c8c <_free_r>:
 8002c8c:	b538      	push	{r3, r4, r5, lr}
 8002c8e:	4605      	mov	r5, r0
 8002c90:	2900      	cmp	r1, #0
 8002c92:	d045      	beq.n	8002d20 <_free_r+0x94>
 8002c94:	f851 3c04 	ldr.w	r3, [r1, #-4]
 8002c98:	1f0c      	subs	r4, r1, #4
 8002c9a:	2b00      	cmp	r3, #0
 8002c9c:	bfb8      	it	lt
 8002c9e:	18e4      	addlt	r4, r4, r3
 8002ca0:	f000 f8b4 	bl	8002e0c <__malloc_lock>
 8002ca4:	4a1f      	ldr	r2, [pc, #124]	; (8002d24 <_free_r+0x98>)
 8002ca6:	6813      	ldr	r3, [r2, #0]
 8002ca8:	4610      	mov	r0, r2
 8002caa:	b933      	cbnz	r3, 8002cba <_free_r+0x2e>
 8002cac:	6063      	str	r3, [r4, #4]
 8002cae:	6014      	str	r4, [r2, #0]
 8002cb0:	4628      	mov	r0, r5
 8002cb2:	e8bd 4038 	ldmia.w	sp!, {r3, r4, r5, lr}
 8002cb6:	f000 b8aa 	b.w	8002e0e <__malloc_unlock>
 8002cba:	42a3      	cmp	r3, r4
 8002cbc:	d90c      	bls.n	8002cd8 <_free_r+0x4c>
 8002cbe:	6821      	ldr	r1, [r4, #0]
 8002cc0:	1862      	adds	r2, r4, r1
 8002cc2:	4293      	cmp	r3, r2
 8002cc4:	bf04      	itt	eq
 8002cc6:	681a      	ldreq	r2, [r3, #0]
 8002cc8:	685b      	ldreq	r3, [r3, #4]
 8002cca:	6063      	str	r3, [r4, #4]
 8002ccc:	bf04      	itt	eq
 8002cce:	1852      	addeq	r2, r2, r1
 8002cd0:	6022      	streq	r2, [r4, #0]
 8002cd2:	6004      	str	r4, [r0, #0]
 8002cd4:	e7ec      	b.n	8002cb0 <_free_r+0x24>
 8002cd6:	4613      	mov	r3, r2
 8002cd8:	685a      	ldr	r2, [r3, #4]
 8002cda:	b10a      	cbz	r2, 8002ce0 <_free_r+0x54>
 8002cdc:	42a2      	cmp	r2, r4
 8002cde:	d9fa      	bls.n	8002cd6 <_free_r+0x4a>
 8002ce0:	6819      	ldr	r1, [r3, #0]
 8002ce2:	1858      	adds	r0, r3, r1
 8002ce4:	42a0      	cmp	r0, r4
 8002ce6:	d10b      	bne.n	8002d00 <_free_r+0x74>
 8002ce8:	6820      	ldr	r0, [r4, #0]
 8002cea:	4401      	add	r1, r0
 8002cec:	1858      	adds	r0, r3, r1
 8002cee:	4282      	cmp	r2, r0
 8002cf0:	6019      	str	r1, [r3, #0]
 8002cf2:	d1dd      	bne.n	8002cb0 <_free_r+0x24>
 8002cf4:	6810      	ldr	r0, [r2, #0]
 8002cf6:	6852      	ldr	r2, [r2, #4]
 8002cf8:	605a      	str	r2, [r3, #4]
 8002cfa:	4401      	add	r1, r0
 8002cfc:	6019      	str	r1, [r3, #0]
 8002cfe:	e7d7      	b.n	8002cb0 <_free_r+0x24>
 8002d00:	d902      	bls.n	8002d08 <_free_r+0x7c>
 8002d02:	230c      	movs	r3, #12
 8002d04:	602b      	str	r3, [r5, #0]
 8002d06:	e7d3      	b.n	8002cb0 <_free_r+0x24>
 8002d08:	6820      	ldr	r0, [r4, #0]
 8002d0a:	1821      	adds	r1, r4, r0
 8002d0c:	428a      	cmp	r2, r1
 8002d0e:	bf04      	itt	eq
 8002d10:	6811      	ldreq	r1, [r2, #0]
 8002d12:	6852      	ldreq	r2, [r2, #4]
 8002d14:	6062      	str	r2, [r4, #4]
 8002d16:	bf04      	itt	eq
 8002d18:	1809      	addeq	r1, r1, r0
 8002d1a:	6021      	streq	r1, [r4, #0]
 8002d1c:	605c      	str	r4, [r3, #4]
 8002d1e:	e7c7      	b.n	8002cb0 <_free_r+0x24>
 8002d20:	bd38      	pop	{r3, r4, r5, pc}
 8002d22:	bf00      	nop
 8002d24:	20000a24 	.word	0x20000a24

08002d28 <_malloc_r>:
 8002d28:	b570      	push	{r4, r5, r6, lr}
 8002d2a:	1ccd      	adds	r5, r1, #3
 8002d2c:	f025 0503 	bic.w	r5, r5, #3
 8002d30:	3508      	adds	r5, #8
 8002d32:	2d0c      	cmp	r5, #12
 8002d34:	bf38      	it	cc
 8002d36:	250c      	movcc	r5, #12
 8002d38:	2d00      	cmp	r5, #0
 8002d3a:	4606      	mov	r6, r0
 8002d3c:	db01      	blt.n	8002d42 <_malloc_r+0x1a>
 8002d3e:	42a9      	cmp	r1, r5
 8002d40:	d903      	bls.n	8002d4a <_malloc_r+0x22>
 8002d42:	230c      	movs	r3, #12
 8002d44:	6033      	str	r3, [r6, #0]
 8002d46:	2000      	movs	r0, #0
 8002d48:	bd70      	pop	{r4, r5, r6, pc}
 8002d4a:	f000 f85f 	bl	8002e0c <__malloc_lock>
 8002d4e:	4a21      	ldr	r2, [pc, #132]	; (8002dd4 <_malloc_r+0xac>)
 8002d50:	6814      	ldr	r4, [r2, #0]
 8002d52:	4621      	mov	r1, r4
 8002d54:	b991      	cbnz	r1, 8002d7c <_malloc_r+0x54>
 8002d56:	4c20      	ldr	r4, [pc, #128]	; (8002dd8 <_malloc_r+0xb0>)
 8002d58:	6823      	ldr	r3, [r4, #0]
 8002d5a:	b91b      	cbnz	r3, 8002d64 <_malloc_r+0x3c>
 8002d5c:	4630      	mov	r0, r6
 8002d5e:	f000 f845 	bl	8002dec <_sbrk_r>
 8002d62:	6020      	str	r0, [r4, #0]
 8002d64:	4629      	mov	r1, r5
 8002d66:	4630      	mov	r0, r6
 8002d68:	f000 f840 	bl	8002dec <_sbrk_r>
 8002d6c:	1c43      	adds	r3, r0, #1
 8002d6e:	d124      	bne.n	8002dba <_malloc_r+0x92>
 8002d70:	230c      	movs	r3, #12
 8002d72:	6033      	str	r3, [r6, #0]
 8002d74:	4630      	mov	r0, r6
 8002d76:	f000 f84a 	bl	8002e0e <__malloc_unlock>
 8002d7a:	e7e4      	b.n	8002d46 <_malloc_r+0x1e>
 8002d7c:	680b      	ldr	r3, [r1, #0]
 8002d7e:	1b5b      	subs	r3, r3, r5
 8002d80:	d418      	bmi.n	8002db4 <_malloc_r+0x8c>
 8002d82:	2b0b      	cmp	r3, #11
 8002d84:	d90f      	bls.n	8002da6 <_malloc_r+0x7e>
 8002d86:	600b      	str	r3, [r1, #0]
 8002d88:	50cd      	str	r5, [r1, r3]
 8002d8a:	18cc      	adds	r4, r1, r3
 8002d8c:	4630      	mov	r0, r6
 8002d8e:	f000 f83e 	bl	8002e0e <__malloc_unlock>
 8002d92:	f104 000b 	add.w	r0, r4, #11
 8002d96:	1d23      	adds	r3, r4, #4
 8002d98:	f020 0007 	bic.w	r0, r0, #7
 8002d9c:	1ac3      	subs	r3, r0, r3
 8002d9e:	d0d3      	beq.n	8002d48 <_malloc_r+0x20>
 8002da0:	425a      	negs	r2, r3
 8002da2:	50e2      	str	r2, [r4, r3]
 8002da4:	e7d0      	b.n	8002d48 <_malloc_r+0x20>
 8002da6:	428c      	cmp	r4, r1
 8002da8:	684b      	ldr	r3, [r1, #4]
 8002daa:	bf16      	itet	ne
 8002dac:	6063      	strne	r3, [r4, #4]
 8002dae:	6013      	streq	r3, [r2, #0]
 8002db0:	460c      	movne	r4, r1
 8002db2:	e7eb      	b.n	8002d8c <_malloc_r+0x64>
 8002db4:	460c      	mov	r4, r1
 8002db6:	6849      	ldr	r1, [r1, #4]
 8002db8:	e7cc      	b.n	8002d54 <_malloc_r+0x2c>
 8002dba:	1cc4      	adds	r4, r0, #3
 8002dbc:	f024 0403 	bic.w	r4, r4, #3
 8002dc0:	42a0      	cmp	r0, r4
 8002dc2:	d005      	beq.n	8002dd0 <_malloc_r+0xa8>
 8002dc4:	1a21      	subs	r1, r4, r0
 8002dc6:	4630      	mov	r0, r6
 8002dc8:	f000 f810 	bl	8002dec <_sbrk_r>
 8002dcc:	3001      	adds	r0, #1
 8002dce:	d0cf      	beq.n	8002d70 <_malloc_r+0x48>
 8002dd0:	6025      	str	r5, [r4, #0]
 8002dd2:	e7db      	b.n	8002d8c <_malloc_r+0x64>
 8002dd4:	20000a24 	.word	0x20000a24
 8002dd8:	20000a28 	.word	0x20000a28

08002ddc <_malloc_usable_size_r>:
 8002ddc:	f851 3c04 	ldr.w	r3, [r1, #-4]
 8002de0:	1f18      	subs	r0, r3, #4
 8002de2:	2b00      	cmp	r3, #0
 8002de4:	bfbc      	itt	lt
 8002de6:	580b      	ldrlt	r3, [r1, r0]
 8002de8:	18c0      	addlt	r0, r0, r3
 8002dea:	4770      	bx	lr

08002dec <_sbrk_r>:
 8002dec:	b538      	push	{r3, r4, r5, lr}
 8002dee:	4c06      	ldr	r4, [pc, #24]	; (8002e08 <_sbrk_r+0x1c>)
 8002df0:	2300      	movs	r3, #0
 8002df2:	4605      	mov	r5, r0
 8002df4:	4608      	mov	r0, r1
 8002df6:	6023      	str	r3, [r4, #0]
 8002df8:	f7fe fb8c 	bl	8001514 <_sbrk>
 8002dfc:	1c43      	adds	r3, r0, #1
 8002dfe:	d102      	bne.n	8002e06 <_sbrk_r+0x1a>
 8002e00:	6823      	ldr	r3, [r4, #0]
 8002e02:	b103      	cbz	r3, 8002e06 <_sbrk_r+0x1a>
 8002e04:	602b      	str	r3, [r5, #0]
 8002e06:	bd38      	pop	{r3, r4, r5, pc}
 8002e08:	20000b70 	.word	0x20000b70

08002e0c <__malloc_lock>:
 8002e0c:	4770      	bx	lr

08002e0e <__malloc_unlock>:
 8002e0e:	4770      	bx	lr

08002e10 <_init>:
 8002e10:	b5f8      	push	{r3, r4, r5, r6, r7, lr}
 8002e12:	bf00      	nop
 8002e14:	bcf8      	pop	{r3, r4, r5, r6, r7}
 8002e16:	bc08      	pop	{r3}
 8002e18:	469e      	mov	lr, r3
 8002e1a:	4770      	bx	lr

08002e1c <_fini>:
 8002e1c:	b5f8      	push	{r3, r4, r5, r6, r7, lr}
 8002e1e:	bf00      	nop
 8002e20:	bcf8      	pop	{r3, r4, r5, r6, r7}
 8002e22:	bc08      	pop	{r3}
 8002e24:	469e      	mov	lr, r3
 8002e26:	4770      	bx	lr
